; ModuleID = 'example.cpp'
source_filename = "example.cpp"
target datalayout = "e-m:o-p270:32:32-p271:32:32-p272:64:64-i64:64-f80:128-n8:16:32:64-S128"
target triple = "x86_64-apple-macosx13.0.0"

%"class.std::__1::basic_ostream" = type { i32 (...)**, %"class.std::__1::basic_ios.base" }
%"class.std::__1::basic_ios.base" = type <{ %"class.std::__1::ios_base", %"class.std::__1::basic_ostream"*, i32 }>
%"class.std::__1::ios_base" = type { i32 (...)**, i32, i64, i64, i32, i32, i8*, i8*, void (i32, %"class.std::__1::ios_base"*, i32)**, i32*, i64, i64, i64*, i64, i64, i8**, i64, i64 }
%"class.std::__1::locale::id" = type <{ %"struct.std::__1::once_flag", i32, [4 x i8] }>
%"struct.std::__1::once_flag" = type { i64 }
%class.anon = type { i32, i32* }
%"class.std::__1::basic_ios" = type <{ %"class.std::__1::ios_base", %"class.std::__1::basic_ostream"*, i32, [4 x i8] }>
%"class.std::__1::locale" = type { %"class.std::__1::locale::__imp"* }
%"class.std::__1::locale::__imp" = type opaque
%"class.std::__1::ctype" = type <{ %"class.std::__1::locale::facet", i32*, i8, [7 x i8] }>
%"class.std::__1::locale::facet" = type { %"class.std::__1::__shared_count" }
%"class.std::__1::__shared_count" = type { i32 (...)**, i64 }

@_ZNSt3__14coutE = external global %"class.std::__1::basic_ostream", align 8
@_ZNSt3__15ctypeIcE2idE = external global %"class.std::__1::locale::id", align 8

; Function Attrs: mustprogress noinline norecurse ssp uwtable
define i32 @main() local_unnamed_addr #0 !dbg !2123 {
entry:
  %m = alloca i32, align 4
  %ref.tmp = alloca %class.anon, align 8
  %0 = bitcast i32* %m to i8*, !dbg !2127
  call void @llvm.lifetime.start.p0i8(i64 4, i8* nonnull %0) #7, !dbg !2127
  call void @llvm.dbg.value(metadata i32 0, metadata !2125, metadata !DIExpression()), !dbg !2128
  store i32 0, i32* %m, align 4, !dbg !2129, !tbaa !2130
  %call = call i32 @_Z6updatei(i32 0), !dbg !2134
  call void @llvm.dbg.value(metadata i32 %call, metadata !2125, metadata !DIExpression()), !dbg !2128
  store i32 %call, i32* %m, align 4, !dbg !2135, !tbaa !2130
  call void @llvm.dbg.value(metadata i32 0, metadata !2126, metadata !DIExpression()), !dbg !2128
  %call1 = call i32 @_Z6updatei(i32 0), !dbg !2136
  call void @llvm.dbg.value(metadata i32 %call1, metadata !2126, metadata !DIExpression()), !dbg !2128
  %1 = bitcast %class.anon* %ref.tmp to i8*, !dbg !2137
  call void @llvm.lifetime.start.p0i8(i64 16, i8* nonnull %1) #7, !dbg !2137
  %2 = getelementptr inbounds %class.anon, %class.anon* %ref.tmp, i64 0, i32 0, !dbg !2137
  store i32 %call1, i32* %2, align 8, !dbg !2137, !tbaa !2138
  %3 = getelementptr inbounds %class.anon, %class.anon* %ref.tmp, i64 0, i32 1, !dbg !2137
  store i32* %m, i32** %3, align 8, !dbg !2137, !tbaa !2141
  %4 = load i32, i32* %m, align 4, !dbg !2142, !tbaa !2130
  call void @llvm.dbg.value(metadata i32 %4, metadata !2125, metadata !DIExpression()), !dbg !2128
  call fastcc void @"_ZZ4mainEN3$_0clEi"(%class.anon* nonnull align 8 dereferenceable(16) %ref.tmp, i32 %4), !dbg !2137
  call void @llvm.lifetime.end.p0i8(i64 16, i8* nonnull %1) #7, !dbg !2137
  %5 = load i32, i32* %m, align 4, !dbg !2143, !tbaa !2130
  call void @llvm.dbg.value(metadata i32 %5, metadata !2125, metadata !DIExpression()), !dbg !2128
  %call2 = call nonnull align 8 dereferenceable(8) %"class.std::__1::basic_ostream"* @_ZNSt3__113basic_ostreamIcNS_11char_traitsIcEEElsEi(%"class.std::__1::basic_ostream"* nonnull align 8 dereferenceable(8) @_ZNSt3__14coutE, i32 %5), !dbg !2144
  %call3 = call nonnull align 8 dereferenceable(8) %"class.std::__1::basic_ostream"* @_ZNSt3__113basic_ostreamIcNS_11char_traitsIcEEElsEPFRS3_S4_E(%"class.std::__1::basic_ostream"* nonnull align 8 dereferenceable(8) %call2, %"class.std::__1::basic_ostream"* (%"class.std::__1::basic_ostream"*)* nonnull @_ZNSt3__14endlIcNS_11char_traitsIcEEEERNS_13basic_ostreamIT_T0_EES7_), !dbg !2145
  %call4 = call nonnull align 8 dereferenceable(8) %"class.std::__1::basic_ostream"* @_ZNSt3__113basic_ostreamIcNS_11char_traitsIcEEElsEi(%"class.std::__1::basic_ostream"* nonnull align 8 dereferenceable(8) %call3, i32 %call1), !dbg !2146
  %call5 = call nonnull align 8 dereferenceable(8) %"class.std::__1::basic_ostream"* @_ZNSt3__113basic_ostreamIcNS_11char_traitsIcEEElsEPFRS3_S4_E(%"class.std::__1::basic_ostream"* nonnull align 8 dereferenceable(8) %call4, %"class.std::__1::basic_ostream"* (%"class.std::__1::basic_ostream"*)* nonnull @_ZNSt3__14endlIcNS_11char_traitsIcEEEERNS_13basic_ostreamIT_T0_EES7_), !dbg !2147
  call void @llvm.lifetime.end.p0i8(i64 4, i8* nonnull %0) #7, !dbg !2148
  ret i32 0, !dbg !2148
}

; Function Attrs: argmemonly mustprogress nofree nosync nounwind willreturn
declare void @llvm.lifetime.start.p0i8(i64 immarg, i8* nocapture) #1

declare !dbg !2149 i32 @_Z6updatei(i32) local_unnamed_addr #2

; Function Attrs: mustprogress nofree noinline norecurse nosync nounwind ssp uwtable willreturn
define internal fastcc void @"_ZZ4mainEN3$_0clEi"(%class.anon* nocapture nonnull align 8 dereferenceable(16) %this, i32 %a) unnamed_addr #3 align 2 !dbg !2150 {
entry:
  call void @llvm.dbg.value(metadata %class.anon* %this, metadata !2164, metadata !DIExpression()), !dbg !2167
  call void @llvm.dbg.value(metadata i32 %a, metadata !2166, metadata !DIExpression()), !dbg !2167
  %0 = getelementptr inbounds %class.anon, %class.anon* %this, i64 0, i32 0, !dbg !2168
  %1 = load i32, i32* %0, align 8, !dbg !2169, !tbaa !2138
  %inc = add nsw i32 %1, 1, !dbg !2169
  store i32 %inc, i32* %0, align 8, !dbg !2169, !tbaa !2138
  %add = add nsw i32 %inc, %a, !dbg !2170
  %2 = getelementptr inbounds %class.anon, %class.anon* %this, i64 0, i32 1, !dbg !2171
  %3 = load i32*, i32** %2, align 8, !dbg !2171, !tbaa !2172
  store i32 %add, i32* %3, align 4, !dbg !2173, !tbaa !2130
  ret void, !dbg !2174
}

; Function Attrs: argmemonly mustprogress nofree nosync nounwind willreturn
declare void @llvm.lifetime.end.p0i8(i64 immarg, i8* nocapture) #1

declare nonnull align 8 dereferenceable(8) %"class.std::__1::basic_ostream"* @_ZNSt3__113basic_ostreamIcNS_11char_traitsIcEEElsEi(%"class.std::__1::basic_ostream"* nonnull align 8 dereferenceable(8), i32) local_unnamed_addr #2

; Function Attrs: mustprogress noinline ssp uwtable
define linkonce_odr hidden nonnull align 8 dereferenceable(8) %"class.std::__1::basic_ostream"* @_ZNSt3__113basic_ostreamIcNS_11char_traitsIcEEElsEPFRS3_S4_E(%"class.std::__1::basic_ostream"* nonnull align 8 dereferenceable(8) %this, %"class.std::__1::basic_ostream"* (%"class.std::__1::basic_ostream"*)* %__pf) local_unnamed_addr #4 align 2 !dbg !2175 {
entry:
  call void @llvm.dbg.value(metadata %"class.std::__1::basic_ostream"* %this, metadata !2488, metadata !DIExpression()), !dbg !2490
  call void @llvm.dbg.value(metadata %"class.std::__1::basic_ostream"* (%"class.std::__1::basic_ostream"*)* %__pf, metadata !2489, metadata !DIExpression()), !dbg !2490
  %call = call nonnull align 8 dereferenceable(8) %"class.std::__1::basic_ostream"* %__pf(%"class.std::__1::basic_ostream"* nonnull align 8 dereferenceable(8) %this), !dbg !2491
  ret %"class.std::__1::basic_ostream"* %call, !dbg !2492
}

; Function Attrs: mustprogress noinline ssp uwtable
define linkonce_odr nonnull align 8 dereferenceable(8) %"class.std::__1::basic_ostream"* @_ZNSt3__14endlIcNS_11char_traitsIcEEEERNS_13basic_ostreamIT_T0_EES7_(%"class.std::__1::basic_ostream"* nonnull align 8 dereferenceable(8) %__os) #4 !dbg !2493 {
entry:
  call void @llvm.dbg.value(metadata %"class.std::__1::basic_ostream"* %__os, metadata !2495, metadata !DIExpression()), !dbg !2496
  %0 = bitcast %"class.std::__1::basic_ostream"* %__os to i8**, !dbg !2497
  %vtable = load i8*, i8** %0, align 8, !dbg !2497, !tbaa !2498
  %vbase.offset.ptr = getelementptr i8, i8* %vtable, i64 -24, !dbg !2497
  %1 = bitcast i8* %vbase.offset.ptr to i64*, !dbg !2497
  %vbase.offset = load i64, i64* %1, align 8, !dbg !2497
  %2 = bitcast %"class.std::__1::basic_ostream"* %__os to i8*, !dbg !2497
  %add.ptr = getelementptr inbounds i8, i8* %2, i64 %vbase.offset, !dbg !2497
  %3 = bitcast i8* %add.ptr to %"class.std::__1::basic_ios"*, !dbg !2497
  %call = call signext i8 @_ZNKSt3__19basic_iosIcNS_11char_traitsIcEEE5widenEc(%"class.std::__1::basic_ios"* nonnull align 8 dereferenceable(148) %3, i8 signext 10), !dbg !2500
  %call1 = call nonnull align 8 dereferenceable(8) %"class.std::__1::basic_ostream"* @_ZNSt3__113basic_ostreamIcNS_11char_traitsIcEEE3putEc(%"class.std::__1::basic_ostream"* nonnull align 8 dereferenceable(8) %__os, i8 signext %call), !dbg !2501
  %call2 = call nonnull align 8 dereferenceable(8) %"class.std::__1::basic_ostream"* @_ZNSt3__113basic_ostreamIcNS_11char_traitsIcEEE5flushEv(%"class.std::__1::basic_ostream"* nonnull align 8 dereferenceable(8) %__os), !dbg !2502
  ret %"class.std::__1::basic_ostream"* %__os, !dbg !2503
}

declare nonnull align 8 dereferenceable(8) %"class.std::__1::basic_ostream"* @_ZNSt3__113basic_ostreamIcNS_11char_traitsIcEEE3putEc(%"class.std::__1::basic_ostream"* nonnull align 8 dereferenceable(8), i8 signext) local_unnamed_addr #2

; Function Attrs: mustprogress noinline ssp uwtable
define linkonce_odr hidden signext i8 @_ZNKSt3__19basic_iosIcNS_11char_traitsIcEEE5widenEc(%"class.std::__1::basic_ios"* nonnull align 8 dereferenceable(148) %this, i8 signext %__c) local_unnamed_addr #4 align 2 personality i8* bitcast (i32 (...)* @__gxx_personality_v0 to i8*) !dbg !2504 {
entry:
  %ref.tmp = alloca %"class.std::__1::locale", align 8
  call void @llvm.dbg.value(metadata %"class.std::__1::basic_ios"* %this, metadata !2506, metadata !DIExpression()), !dbg !2509
  call void @llvm.dbg.value(metadata i8 %__c, metadata !2508, metadata !DIExpression()), !dbg !2509
  %0 = bitcast %"class.std::__1::locale"* %ref.tmp to i8*, !dbg !2510
  call void @llvm.lifetime.start.p0i8(i64 8, i8* nonnull %0) #7, !dbg !2510
  %1 = getelementptr inbounds %"class.std::__1::basic_ios", %"class.std::__1::basic_ios"* %this, i64 0, i32 0, !dbg !2510
  call void @_ZNKSt3__18ios_base6getlocEv(%"class.std::__1::locale"* nonnull sret(%"class.std::__1::locale") align 8 %ref.tmp, %"class.std::__1::ios_base"* nonnull align 8 dereferenceable(136) %1), !dbg !2510
  %call = invoke nonnull align 8 dereferenceable(25) %"class.std::__1::ctype"* @_ZNSt3__19use_facetINS_5ctypeIcEEEERKT_RKNS_6localeE(%"class.std::__1::locale"* nonnull align 8 dereferenceable(8) %ref.tmp)
          to label %invoke.cont unwind label %lpad, !dbg !2511

invoke.cont:                                      ; preds = %entry
  %call3 = invoke signext i8 @_ZNKSt3__15ctypeIcE5widenEc(%"class.std::__1::ctype"* nonnull align 8 dereferenceable(25) %call, i8 signext %__c)
          to label %invoke.cont2 unwind label %lpad, !dbg !2512

invoke.cont2:                                     ; preds = %invoke.cont
  call void @_ZNSt3__16localeD1Ev(%"class.std::__1::locale"* nonnull align 8 dereferenceable(8) %ref.tmp) #7, !dbg !2513
  call void @llvm.lifetime.end.p0i8(i64 8, i8* nonnull %0) #7, !dbg !2513
  ret i8 %call3, !dbg !2513

lpad:                                             ; preds = %invoke.cont, %entry
  %2 = landingpad { i8*, i32 }
          cleanup, !dbg !2514
  call void @_ZNSt3__16localeD1Ev(%"class.std::__1::locale"* nonnull align 8 dereferenceable(8) %ref.tmp) #7, !dbg !2513
  call void @llvm.lifetime.end.p0i8(i64 8, i8* nonnull %0) #7, !dbg !2513
  resume { i8*, i32 } %2, !dbg !2513
}

declare nonnull align 8 dereferenceable(8) %"class.std::__1::basic_ostream"* @_ZNSt3__113basic_ostreamIcNS_11char_traitsIcEEE5flushEv(%"class.std::__1::basic_ostream"* nonnull align 8 dereferenceable(8)) local_unnamed_addr #2

; Function Attrs: mustprogress noinline ssp uwtable
define linkonce_odr hidden nonnull align 8 dereferenceable(25) %"class.std::__1::ctype"* @_ZNSt3__19use_facetINS_5ctypeIcEEEERKT_RKNS_6localeE(%"class.std::__1::locale"* nonnull align 8 dereferenceable(8) %__l) local_unnamed_addr #4 !dbg !2515 {
entry:
  call void @llvm.dbg.value(metadata %"class.std::__1::locale"* %__l, metadata !2609, metadata !DIExpression()), !dbg !2612
  %call = call %"class.std::__1::locale::facet"* @_ZNKSt3__16locale9use_facetERNS0_2idE(%"class.std::__1::locale"* nonnull align 8 dereferenceable(8) %__l, %"class.std::__1::locale::id"* nonnull align 8 dereferenceable(12) @_ZNSt3__15ctypeIcE2idE), !dbg !2613
  %0 = bitcast %"class.std::__1::locale::facet"* %call to %"class.std::__1::ctype"*, !dbg !2614
  ret %"class.std::__1::ctype"* %0, !dbg !2615
}

declare void @_ZNKSt3__18ios_base6getlocEv(%"class.std::__1::locale"* sret(%"class.std::__1::locale") align 8, %"class.std::__1::ios_base"* nonnull align 8 dereferenceable(136)) local_unnamed_addr #2

declare i32 @__gxx_personality_v0(...)

; Function Attrs: mustprogress noinline ssp uwtable
define linkonce_odr hidden signext i8 @_ZNKSt3__15ctypeIcE5widenEc(%"class.std::__1::ctype"* nonnull align 8 dereferenceable(25) %this, i8 signext %__c) local_unnamed_addr #4 align 2 !dbg !2616 {
entry:
  call void @llvm.dbg.value(metadata %"class.std::__1::ctype"* %this, metadata !2618, metadata !DIExpression()), !dbg !2621
  call void @llvm.dbg.value(metadata i8 %__c, metadata !2620, metadata !DIExpression()), !dbg !2621
  %0 = bitcast %"class.std::__1::ctype"* %this to i8 (%"class.std::__1::ctype"*, i8)***, !dbg !2622
  %vtable = load i8 (%"class.std::__1::ctype"*, i8)**, i8 (%"class.std::__1::ctype"*, i8)*** %0, align 8, !dbg !2622, !tbaa !2498
  %vfn = getelementptr inbounds i8 (%"class.std::__1::ctype"*, i8)*, i8 (%"class.std::__1::ctype"*, i8)** %vtable, i64 7, !dbg !2622
  %1 = load i8 (%"class.std::__1::ctype"*, i8)*, i8 (%"class.std::__1::ctype"*, i8)** %vfn, align 8, !dbg !2622
  %call = call signext i8 %1(%"class.std::__1::ctype"* nonnull align 8 dereferenceable(25) %this, i8 signext %__c), !dbg !2622
  ret i8 %call, !dbg !2623
}

; Function Attrs: nounwind
declare void @_ZNSt3__16localeD1Ev(%"class.std::__1::locale"* nonnull align 8 dereferenceable(8)) unnamed_addr #5

declare %"class.std::__1::locale::facet"* @_ZNKSt3__16locale9use_facetERNS0_2idE(%"class.std::__1::locale"* nonnull align 8 dereferenceable(8), %"class.std::__1::locale::id"* nonnull align 8 dereferenceable(12)) local_unnamed_addr #2

; Function Attrs: nofree nosync nounwind readnone speculatable willreturn
declare void @llvm.dbg.value(metadata, metadata, metadata) #6

attributes #0 = { mustprogress noinline norecurse ssp uwtable "frame-pointer"="all" "min-legal-vector-width"="0" "no-trapping-math"="true" "stack-protector-buffer-size"="8" "target-cpu"="penryn" "target-features"="+cx16,+cx8,+fxsr,+mmx,+sahf,+sse,+sse2,+sse3,+sse4.1,+ssse3,+x87" "tune-cpu"="generic" }
attributes #1 = { argmemonly mustprogress nofree nosync nounwind willreturn }
attributes #2 = { "frame-pointer"="all" "no-trapping-math"="true" "stack-protector-buffer-size"="8" "target-cpu"="penryn" "target-features"="+cx16,+cx8,+fxsr,+mmx,+sahf,+sse,+sse2,+sse3,+sse4.1,+ssse3,+x87" "tune-cpu"="generic" }
attributes #3 = { mustprogress nofree noinline norecurse nosync nounwind ssp uwtable willreturn "frame-pointer"="all" "min-legal-vector-width"="0" "no-trapping-math"="true" "stack-protector-buffer-size"="8" "target-cpu"="penryn" "target-features"="+cx16,+cx8,+fxsr,+mmx,+sahf,+sse,+sse2,+sse3,+sse4.1,+ssse3,+x87" "tune-cpu"="generic" }
attributes #4 = { mustprogress noinline ssp uwtable "frame-pointer"="all" "min-legal-vector-width"="0" "no-trapping-math"="true" "stack-protector-buffer-size"="8" "target-cpu"="penryn" "target-features"="+cx16,+cx8,+fxsr,+mmx,+sahf,+sse,+sse2,+sse3,+sse4.1,+ssse3,+x87" "tune-cpu"="generic" }
attributes #5 = { nounwind "frame-pointer"="all" "no-trapping-math"="true" "stack-protector-buffer-size"="8" "target-cpu"="penryn" "target-features"="+cx16,+cx8,+fxsr,+mmx,+sahf,+sse,+sse2,+sse3,+sse4.1,+ssse3,+x87" "tune-cpu"="generic" }
attributes #6 = { nofree nosync nounwind readnone speculatable willreturn }
attributes #7 = { nounwind }

!llvm.module.flags = !{!0, !1, !2, !3, !4, !5, !6}
!llvm.dbg.cu = !{!7}
!llvm.ident = !{!2122}

!0 = !{i32 2, !"SDK Version", [2 x i32] [i32 13, i32 1]}
!1 = !{i32 7, !"Dwarf Version", i32 4}
!2 = !{i32 2, !"Debug Info Version", i32 3}
!3 = !{i32 1, !"wchar_size", i32 4}
!4 = !{i32 7, !"PIC Level", i32 2}
!5 = !{i32 7, !"uwtable", i32 1}
!6 = !{i32 7, !"frame-pointer", i32 2}
!7 = distinct !DICompileUnit(language: DW_LANG_C_plus_plus_14, file: !8, producer: "clang version 13.0.0 (git@github.com:llvm/llvm-project.git d7b669b3a30345cfcdb2fde2af6f48aa4b94845d)", isOptimized: true, runtimeVersion: 0, emissionKind: FullDebug, enums: !9, imports: !1186, splitDebugInlining: false, nameTableKind: None, sysroot: "/Applications/Xcode.app/Contents/Developer/Platforms/MacOSX.platform/Developer/SDKs/MacOSX.sdk", sdk: "MacOSX.sdk")
!8 = !DIFile(filename: "example.cpp", directory: "/Users/jryans/Projects/Malleable/Experiments/Debug Info/Issues/DWARF/lambda")
!9 = !{!10, !1181}
!10 = !DICompositeType(tag: DW_TAG_enumeration_type, name: "event", scope: !12, file: !11, line: 307, baseType: !25, size: 32, elements: !1177, identifier: "_ZTSNSt3__18ios_base5eventE")
!11 = !DIFile(filename: "LLVM/llvm/build-release-clang-lldb-13.0.0/bin/../include/c++/v1/ios", directory: "/Users/jryans/Projects")
!12 = distinct !DICompositeType(tag: DW_TAG_class_type, name: "ios_base", scope: !13, file: !11, line: 230, size: 1088, flags: DIFlagTypePassByReference | DIFlagNonTrivial, elements: !15, vtableHolder: !12, identifier: "_ZTSNSt3__18ios_baseE")
!13 = !DINamespace(name: "__1", scope: !14, exportSymbols: true)
!14 = !DINamespace(name: "std", scope: null)
!15 = !{!16, !22, !26, !27, !28, !29, !30, !31, !32, !33, !34, !35, !36, !37, !38, !39, !40, !41, !42, !43, !46, !47, !48, !49, !52, !53, !54, !55, !56, !57, !58, !63, !64, !65, !66, !68, !69, !76, !78, !81, !82, !85, !87, !88, !89, !91, !92, !93, !98, !102, !103, !106, !109, !112, !115, !116, !117, !1114, !1117, !1118, !1122, !1126, !1129, !1132, !1136, !1139, !1142, !1145, !1148, !1149, !1152, !1153, !1154, !1155, !1156, !1157, !1158, !1159, !1160, !1161, !1164, !1167, !1168, !1171, !1172, !1175, !1176}
!16 = !DIDerivedType(tag: DW_TAG_member, name: "_vptr$ios_base", scope: !11, file: !11, baseType: !17, size: 64, flags: DIFlagArtificial)
!17 = !DIDerivedType(tag: DW_TAG_pointer_type, baseType: !18, size: 64)
!18 = !DIDerivedType(tag: DW_TAG_pointer_type, name: "__vtbl_ptr_type", baseType: !19, size: 64)
!19 = !DISubroutineType(types: !20)
!20 = !{!21}
!21 = !DIBasicType(name: "int", size: 32, encoding: DW_ATE_signed)
!22 = !DIDerivedType(tag: DW_TAG_member, name: "boolalpha", scope: !12, file: !11, line: 236, baseType: !23, flags: DIFlagPublic | DIFlagStaticMember, extraData: i32 1)
!23 = !DIDerivedType(tag: DW_TAG_const_type, baseType: !24)
!24 = !DIDerivedType(tag: DW_TAG_typedef, name: "fmtflags", scope: !12, file: !11, line: 235, baseType: !25)
!25 = !DIBasicType(name: "unsigned int", size: 32, encoding: DW_ATE_unsigned)
!26 = !DIDerivedType(tag: DW_TAG_member, name: "dec", scope: !12, file: !11, line: 237, baseType: !23, flags: DIFlagPublic | DIFlagStaticMember, extraData: i32 2)
!27 = !DIDerivedType(tag: DW_TAG_member, name: "fixed", scope: !12, file: !11, line: 238, baseType: !23, flags: DIFlagPublic | DIFlagStaticMember, extraData: i32 4)
!28 = !DIDerivedType(tag: DW_TAG_member, name: "hex", scope: !12, file: !11, line: 239, baseType: !23, flags: DIFlagPublic | DIFlagStaticMember, extraData: i32 8)
!29 = !DIDerivedType(tag: DW_TAG_member, name: "internal", scope: !12, file: !11, line: 240, baseType: !23, flags: DIFlagPublic | DIFlagStaticMember, extraData: i32 16)
!30 = !DIDerivedType(tag: DW_TAG_member, name: "left", scope: !12, file: !11, line: 241, baseType: !23, flags: DIFlagPublic | DIFlagStaticMember, extraData: i32 32)
!31 = !DIDerivedType(tag: DW_TAG_member, name: "oct", scope: !12, file: !11, line: 242, baseType: !23, flags: DIFlagPublic | DIFlagStaticMember, extraData: i32 64)
!32 = !DIDerivedType(tag: DW_TAG_member, name: "right", scope: !12, file: !11, line: 243, baseType: !23, flags: DIFlagPublic | DIFlagStaticMember, extraData: i32 128)
!33 = !DIDerivedType(tag: DW_TAG_member, name: "scientific", scope: !12, file: !11, line: 244, baseType: !23, flags: DIFlagPublic | DIFlagStaticMember, extraData: i32 256)
!34 = !DIDerivedType(tag: DW_TAG_member, name: "showbase", scope: !12, file: !11, line: 245, baseType: !23, flags: DIFlagPublic | DIFlagStaticMember, extraData: i32 512)
!35 = !DIDerivedType(tag: DW_TAG_member, name: "showpoint", scope: !12, file: !11, line: 246, baseType: !23, flags: DIFlagPublic | DIFlagStaticMember, extraData: i32 1024)
!36 = !DIDerivedType(tag: DW_TAG_member, name: "showpos", scope: !12, file: !11, line: 247, baseType: !23, flags: DIFlagPublic | DIFlagStaticMember, extraData: i32 2048)
!37 = !DIDerivedType(tag: DW_TAG_member, name: "skipws", scope: !12, file: !11, line: 248, baseType: !23, flags: DIFlagPublic | DIFlagStaticMember, extraData: i32 4096)
!38 = !DIDerivedType(tag: DW_TAG_member, name: "unitbuf", scope: !12, file: !11, line: 249, baseType: !23, flags: DIFlagPublic | DIFlagStaticMember, extraData: i32 8192)
!39 = !DIDerivedType(tag: DW_TAG_member, name: "uppercase", scope: !12, file: !11, line: 250, baseType: !23, flags: DIFlagPublic | DIFlagStaticMember, extraData: i32 16384)
!40 = !DIDerivedType(tag: DW_TAG_member, name: "adjustfield", scope: !12, file: !11, line: 251, baseType: !23, flags: DIFlagPublic | DIFlagStaticMember, extraData: i32 176)
!41 = !DIDerivedType(tag: DW_TAG_member, name: "basefield", scope: !12, file: !11, line: 252, baseType: !23, flags: DIFlagPublic | DIFlagStaticMember, extraData: i32 74)
!42 = !DIDerivedType(tag: DW_TAG_member, name: "floatfield", scope: !12, file: !11, line: 253, baseType: !23, flags: DIFlagPublic | DIFlagStaticMember, extraData: i32 260)
!43 = !DIDerivedType(tag: DW_TAG_member, name: "badbit", scope: !12, file: !11, line: 256, baseType: !44, flags: DIFlagPublic | DIFlagStaticMember, extraData: i32 1)
!44 = !DIDerivedType(tag: DW_TAG_const_type, baseType: !45)
!45 = !DIDerivedType(tag: DW_TAG_typedef, name: "iostate", scope: !12, file: !11, line: 255, baseType: !25)
!46 = !DIDerivedType(tag: DW_TAG_member, name: "eofbit", scope: !12, file: !11, line: 257, baseType: !44, flags: DIFlagPublic | DIFlagStaticMember, extraData: i32 2)
!47 = !DIDerivedType(tag: DW_TAG_member, name: "failbit", scope: !12, file: !11, line: 258, baseType: !44, flags: DIFlagPublic | DIFlagStaticMember, extraData: i32 4)
!48 = !DIDerivedType(tag: DW_TAG_member, name: "goodbit", scope: !12, file: !11, line: 259, baseType: !44, flags: DIFlagPublic | DIFlagStaticMember, extraData: i32 0)
!49 = !DIDerivedType(tag: DW_TAG_member, name: "app", scope: !12, file: !11, line: 262, baseType: !50, flags: DIFlagPublic | DIFlagStaticMember, extraData: i32 1)
!50 = !DIDerivedType(tag: DW_TAG_const_type, baseType: !51)
!51 = !DIDerivedType(tag: DW_TAG_typedef, name: "openmode", scope: !12, file: !11, line: 261, baseType: !25)
!52 = !DIDerivedType(tag: DW_TAG_member, name: "ate", scope: !12, file: !11, line: 263, baseType: !50, flags: DIFlagPublic | DIFlagStaticMember, extraData: i32 2)
!53 = !DIDerivedType(tag: DW_TAG_member, name: "binary", scope: !12, file: !11, line: 264, baseType: !50, flags: DIFlagPublic | DIFlagStaticMember, extraData: i32 4)
!54 = !DIDerivedType(tag: DW_TAG_member, name: "in", scope: !12, file: !11, line: 265, baseType: !50, flags: DIFlagPublic | DIFlagStaticMember, extraData: i32 8)
!55 = !DIDerivedType(tag: DW_TAG_member, name: "out", scope: !12, file: !11, line: 266, baseType: !50, flags: DIFlagPublic | DIFlagStaticMember, extraData: i32 16)
!56 = !DIDerivedType(tag: DW_TAG_member, name: "trunc", scope: !12, file: !11, line: 267, baseType: !50, flags: DIFlagPublic | DIFlagStaticMember, extraData: i32 32)
!57 = !DIDerivedType(tag: DW_TAG_member, name: "__fmtflags_", scope: !12, file: !11, line: 370, baseType: !24, size: 32, offset: 64)
!58 = !DIDerivedType(tag: DW_TAG_member, name: "__precision_", scope: !12, file: !11, line: 371, baseType: !59, size: 64, offset: 128)
!59 = !DIDerivedType(tag: DW_TAG_typedef, name: "streamsize", scope: !13, file: !11, line: 228, baseType: !60)
!60 = !DIDerivedType(tag: DW_TAG_typedef, name: "ptrdiff_t", file: !61, line: 35, baseType: !62)
!61 = !DIFile(filename: "LLVM/llvm/build-release-clang-lldb-13.0.0/lib/clang/13.0.0/include/stddef.h", directory: "/Users/jryans/Projects")
!62 = !DIBasicType(name: "long int", size: 64, encoding: DW_ATE_signed)
!63 = !DIDerivedType(tag: DW_TAG_member, name: "__width_", scope: !12, file: !11, line: 372, baseType: !59, size: 64, offset: 192)
!64 = !DIDerivedType(tag: DW_TAG_member, name: "__rdstate_", scope: !12, file: !11, line: 373, baseType: !45, size: 32, offset: 256)
!65 = !DIDerivedType(tag: DW_TAG_member, name: "__exceptions_", scope: !12, file: !11, line: 374, baseType: !45, size: 32, offset: 288)
!66 = !DIDerivedType(tag: DW_TAG_member, name: "__rdbuf_", scope: !12, file: !11, line: 375, baseType: !67, size: 64, offset: 320)
!67 = !DIDerivedType(tag: DW_TAG_pointer_type, baseType: null, size: 64)
!68 = !DIDerivedType(tag: DW_TAG_member, name: "__loc_", scope: !12, file: !11, line: 376, baseType: !67, size: 64, offset: 384)
!69 = !DIDerivedType(tag: DW_TAG_member, name: "__fn_", scope: !12, file: !11, line: 377, baseType: !70, size: 64, offset: 448)
!70 = !DIDerivedType(tag: DW_TAG_pointer_type, baseType: !71, size: 64)
!71 = !DIDerivedType(tag: DW_TAG_typedef, name: "event_callback", scope: !12, file: !11, line: 308, baseType: !72)
!72 = !DIDerivedType(tag: DW_TAG_pointer_type, baseType: !73, size: 64)
!73 = !DISubroutineType(types: !74)
!74 = !{null, !10, !75, !21}
!75 = !DIDerivedType(tag: DW_TAG_reference_type, baseType: !12, size: 64)
!76 = !DIDerivedType(tag: DW_TAG_member, name: "__index_", scope: !12, file: !11, line: 378, baseType: !77, size: 64, offset: 512)
!77 = !DIDerivedType(tag: DW_TAG_pointer_type, baseType: !21, size: 64)
!78 = !DIDerivedType(tag: DW_TAG_member, name: "__event_size_", scope: !12, file: !11, line: 379, baseType: !79, size: 64, offset: 576)
!79 = !DIDerivedType(tag: DW_TAG_typedef, name: "size_t", file: !61, line: 46, baseType: !80)
!80 = !DIBasicType(name: "long unsigned int", size: 64, encoding: DW_ATE_unsigned)
!81 = !DIDerivedType(tag: DW_TAG_member, name: "__event_cap_", scope: !12, file: !11, line: 380, baseType: !79, size: 64, offset: 640)
!82 = !DIDerivedType(tag: DW_TAG_member, name: "__xindex_", scope: !12, file: !11, line: 384, baseType: !83, flags: DIFlagStaticMember)
!83 = !DICompositeType(tag: DW_TAG_structure_type, name: "atomic<int>", scope: !13, file: !84, line: 1797, flags: DIFlagFwdDecl | DIFlagNonTrivial, identifier: "_ZTSNSt3__16atomicIiEE")
!84 = !DIFile(filename: "LLVM/llvm/build-release-clang-lldb-13.0.0/bin/../include/c++/v1/atomic", directory: "/Users/jryans/Projects")
!85 = !DIDerivedType(tag: DW_TAG_member, name: "__iarray_", scope: !12, file: !11, line: 388, baseType: !86, size: 64, offset: 704)
!86 = !DIDerivedType(tag: DW_TAG_pointer_type, baseType: !62, size: 64)
!87 = !DIDerivedType(tag: DW_TAG_member, name: "__iarray_size_", scope: !12, file: !11, line: 389, baseType: !79, size: 64, offset: 768)
!88 = !DIDerivedType(tag: DW_TAG_member, name: "__iarray_cap_", scope: !12, file: !11, line: 390, baseType: !79, size: 64, offset: 832)
!89 = !DIDerivedType(tag: DW_TAG_member, name: "__parray_", scope: !12, file: !11, line: 391, baseType: !90, size: 64, offset: 896)
!90 = !DIDerivedType(tag: DW_TAG_pointer_type, baseType: !67, size: 64)
!91 = !DIDerivedType(tag: DW_TAG_member, name: "__parray_size_", scope: !12, file: !11, line: 392, baseType: !79, size: 64, offset: 960)
!92 = !DIDerivedType(tag: DW_TAG_member, name: "__parray_cap_", scope: !12, file: !11, line: 393, baseType: !79, size: 64, offset: 1024)
!93 = !DISubprogram(name: "flags", linkageName: "_ZNKSt3__18ios_base5flagsEv", scope: !12, file: !11, line: 283, type: !94, scopeLine: 283, flags: DIFlagPublic | DIFlagPrototyped, spFlags: DISPFlagOptimized)
!94 = !DISubroutineType(types: !95)
!95 = !{!24, !96}
!96 = !DIDerivedType(tag: DW_TAG_pointer_type, baseType: !97, size: 64, flags: DIFlagArtificial | DIFlagObjectPointer)
!97 = !DIDerivedType(tag: DW_TAG_const_type, baseType: !12)
!98 = !DISubprogram(name: "flags", linkageName: "_ZNSt3__18ios_base5flagsEj", scope: !12, file: !11, line: 284, type: !99, scopeLine: 284, flags: DIFlagPublic | DIFlagPrototyped, spFlags: DISPFlagOptimized)
!99 = !DISubroutineType(types: !100)
!100 = !{!24, !101, !24}
!101 = !DIDerivedType(tag: DW_TAG_pointer_type, baseType: !12, size: 64, flags: DIFlagArtificial | DIFlagObjectPointer)
!102 = !DISubprogram(name: "setf", linkageName: "_ZNSt3__18ios_base4setfEj", scope: !12, file: !11, line: 285, type: !99, scopeLine: 285, flags: DIFlagPublic | DIFlagPrototyped, spFlags: DISPFlagOptimized)
!103 = !DISubprogram(name: "setf", linkageName: "_ZNSt3__18ios_base4setfEjj", scope: !12, file: !11, line: 286, type: !104, scopeLine: 286, flags: DIFlagPublic | DIFlagPrototyped, spFlags: DISPFlagOptimized)
!104 = !DISubroutineType(types: !105)
!105 = !{!24, !101, !24, !24}
!106 = !DISubprogram(name: "unsetf", linkageName: "_ZNSt3__18ios_base6unsetfEj", scope: !12, file: !11, line: 287, type: !107, scopeLine: 287, flags: DIFlagPublic | DIFlagPrototyped, spFlags: DISPFlagOptimized)
!107 = !DISubroutineType(types: !108)
!108 = !{null, !101, !24}
!109 = !DISubprogram(name: "precision", linkageName: "_ZNKSt3__18ios_base9precisionEv", scope: !12, file: !11, line: 289, type: !110, scopeLine: 289, flags: DIFlagPublic | DIFlagPrototyped, spFlags: DISPFlagOptimized)
!110 = !DISubroutineType(types: !111)
!111 = !{!59, !96}
!112 = !DISubprogram(name: "precision", linkageName: "_ZNSt3__18ios_base9precisionEl", scope: !12, file: !11, line: 290, type: !113, scopeLine: 290, flags: DIFlagPublic | DIFlagPrototyped, spFlags: DISPFlagOptimized)
!113 = !DISubroutineType(types: !114)
!114 = !{!59, !101, !59}
!115 = !DISubprogram(name: "width", linkageName: "_ZNKSt3__18ios_base5widthEv", scope: !12, file: !11, line: 291, type: !110, scopeLine: 291, flags: DIFlagPublic | DIFlagPrototyped, spFlags: DISPFlagOptimized)
!116 = !DISubprogram(name: "width", linkageName: "_ZNSt3__18ios_base5widthEl", scope: !12, file: !11, line: 292, type: !113, scopeLine: 292, flags: DIFlagPublic | DIFlagPrototyped, spFlags: DISPFlagOptimized)
!117 = !DISubprogram(name: "imbue", linkageName: "_ZNSt3__18ios_base5imbueERKNS_6localeE", scope: !12, file: !11, line: 295, type: !118, scopeLine: 295, flags: DIFlagPublic | DIFlagPrototyped, spFlags: DISPFlagOptimized)
!118 = !DISubroutineType(types: !119)
!119 = !{!120, !101, !143}
!120 = distinct !DICompositeType(tag: DW_TAG_class_type, name: "locale", scope: !13, file: !121, line: 125, size: 64, flags: DIFlagTypePassByReference | DIFlagNonTrivial, elements: !122, identifier: "_ZTSNSt3__16localeE")
!121 = !DIFile(filename: "LLVM/llvm/build-release-clang-lldb-13.0.0/bin/../include/c++/v1/__locale", directory: "/Users/jryans/Projects")
!122 = !{!123, !126, !127, !128, !129, !130, !131, !132, !133, !136, !140, !145, !151, !990, !993, !996, !999, !1000, !1003, !1007, !1010, !1011, !1014, !1017, !1062, !1066, !1109}
!123 = !DIDerivedType(tag: DW_TAG_member, name: "none", scope: !120, file: !121, line: 135, baseType: !124, flags: DIFlagPublic | DIFlagStaticMember, extraData: i32 0)
!124 = !DIDerivedType(tag: DW_TAG_const_type, baseType: !125)
!125 = !DIDerivedType(tag: DW_TAG_typedef, name: "category", scope: !120, file: !121, line: 132, baseType: !21)
!126 = !DIDerivedType(tag: DW_TAG_member, name: "collate", scope: !120, file: !121, line: 136, baseType: !124, flags: DIFlagPublic | DIFlagStaticMember, extraData: i32 1)
!127 = !DIDerivedType(tag: DW_TAG_member, name: "ctype", scope: !120, file: !121, line: 137, baseType: !124, flags: DIFlagPublic | DIFlagStaticMember, extraData: i32 2)
!128 = !DIDerivedType(tag: DW_TAG_member, name: "monetary", scope: !120, file: !121, line: 138, baseType: !124, flags: DIFlagPublic | DIFlagStaticMember, extraData: i32 8)
!129 = !DIDerivedType(tag: DW_TAG_member, name: "numeric", scope: !120, file: !121, line: 139, baseType: !124, flags: DIFlagPublic | DIFlagStaticMember, extraData: i32 16)
!130 = !DIDerivedType(tag: DW_TAG_member, name: "time", scope: !120, file: !121, line: 140, baseType: !124, flags: DIFlagPublic | DIFlagStaticMember, extraData: i32 32)
!131 = !DIDerivedType(tag: DW_TAG_member, name: "messages", scope: !120, file: !121, line: 141, baseType: !124, flags: DIFlagPublic | DIFlagStaticMember, extraData: i32 4)
!132 = !DIDerivedType(tag: DW_TAG_member, name: "all", scope: !120, file: !121, line: 142, baseType: !124, flags: DIFlagPublic | DIFlagStaticMember, extraData: i32 63)
!133 = !DIDerivedType(tag: DW_TAG_member, name: "__locale_", scope: !120, file: !121, line: 178, baseType: !134, size: 64)
!134 = !DIDerivedType(tag: DW_TAG_pointer_type, baseType: !135, size: 64)
!135 = !DICompositeType(tag: DW_TAG_class_type, name: "__imp", scope: !120, file: !121, line: 177, flags: DIFlagFwdDecl | DIFlagNonTrivial, identifier: "_ZTSNSt3__16locale5__impE")
!136 = !DISubprogram(name: "locale", scope: !120, file: !121, line: 145, type: !137, scopeLine: 145, flags: DIFlagPublic | DIFlagPrototyped, spFlags: DISPFlagOptimized)
!137 = !DISubroutineType(types: !138)
!138 = !{null, !139}
!139 = !DIDerivedType(tag: DW_TAG_pointer_type, baseType: !120, size: 64, flags: DIFlagArtificial | DIFlagObjectPointer)
!140 = !DISubprogram(name: "locale", scope: !120, file: !121, line: 146, type: !141, scopeLine: 146, flags: DIFlagPublic | DIFlagPrototyped, spFlags: DISPFlagOptimized)
!141 = !DISubroutineType(types: !142)
!142 = !{null, !139, !143}
!143 = !DIDerivedType(tag: DW_TAG_reference_type, baseType: !144, size: 64)
!144 = !DIDerivedType(tag: DW_TAG_const_type, baseType: !120)
!145 = !DISubprogram(name: "locale", scope: !120, file: !121, line: 147, type: !146, scopeLine: 147, flags: DIFlagPublic | DIFlagExplicit | DIFlagPrototyped, spFlags: DISPFlagOptimized)
!146 = !DISubroutineType(types: !147)
!147 = !{null, !139, !148}
!148 = !DIDerivedType(tag: DW_TAG_pointer_type, baseType: !149, size: 64)
!149 = !DIDerivedType(tag: DW_TAG_const_type, baseType: !150)
!150 = !DIBasicType(name: "char", size: 8, encoding: DW_ATE_signed_char)
!151 = !DISubprogram(name: "locale", scope: !120, file: !121, line: 148, type: !152, scopeLine: 148, flags: DIFlagPublic | DIFlagExplicit | DIFlagPrototyped, spFlags: DISPFlagOptimized)
!152 = !DISubroutineType(types: !153)
!153 = !{null, !139, !154}
!154 = !DIDerivedType(tag: DW_TAG_reference_type, baseType: !155, size: 64)
!155 = !DIDerivedType(tag: DW_TAG_const_type, baseType: !156)
!156 = !DIDerivedType(tag: DW_TAG_typedef, name: "string", scope: !13, file: !157, line: 243, baseType: !158)
!157 = !DIFile(filename: "LLVM/llvm/build-release-clang-lldb-13.0.0/bin/../include/c++/v1/iosfwd", directory: "/Users/jryans/Projects")
!158 = distinct !DICompositeType(tag: DW_TAG_class_type, name: "basic_string<char, std::__1::char_traits<char>, std::__1::allocator<char> >", scope: !13, file: !159, line: 690, size: 192, flags: DIFlagTypePassByReference | DIFlagNonTrivial, elements: !160, templateParams: !988, identifier: "_ZTSNSt3__112basic_stringIcNS_11char_traitsIcEENS_9allocatorIcEEEE")
!159 = !DIFile(filename: "LLVM/llvm/build-release-clang-lldb-13.0.0/bin/../include/c++/v1/string", directory: "/Users/jryans/Projects")
!160 = !{!161, !173, !244, !245, !374, !375, !379, !385, !390, !393, !397, !400, !403, !406, !409, !412, !415, !441, !444, !445, !634, !638, !641, !644, !649, !652, !658, !663, !664, !665, !670, !675, !676, !677, !678, !679, !680, !681, !684, !685, !686, !687, !690, !693, !694, !695, !696, !697, !698, !701, !706, !711, !712, !713, !714, !715, !716, !717, !718, !721, !724, !725, !728, !729, !730, !733, !734, !737, !740, !741, !742, !743, !744, !745, !746, !747, !748, !749, !752, !755, !758, !761, !764, !767, !770, !773, !776, !779, !782, !785, !788, !791, !794, !797, !800, !803, !806, !809, !812, !816, !819, !822, !825, !826, !829, !832, !835, !838, !841, !842, !843, !844, !845, !846, !847, !848, !849, !850, !851, !852, !853, !854, !855, !856, !857, !858, !859, !860, !861, !864, !867, !870, !873, !876, !879, !880, !881, !882, !883, !887, !890, !891, !892, !893, !894, !895, !896, !897, !900, !903, !908, !909, !910, !911, !912, !913, !916, !919, !922, !923, !924, !927, !930, !931, !934, !935, !954, !970, !973, !976, !977, !978, !979, !980, !981, !982, !983, !984, !987}
!161 = !DIDerivedType(tag: DW_TAG_inheritance, scope: !158, baseType: !162, extraData: i32 0)
!162 = distinct !DICompositeType(tag: DW_TAG_class_type, name: "__basic_string_common<true>", scope: !13, file: !159, line: 637, size: 8, flags: DIFlagTypePassByValue, elements: !163, templateParams: !170, identifier: "_ZTSNSt3__121__basic_string_commonILb1EEE")
!163 = !{!164, !169}
!164 = !DISubprogram(name: "__throw_length_error", linkageName: "_ZNKSt3__121__basic_string_commonILb1EE20__throw_length_errorEv", scope: !162, file: !159, line: 619, type: !165, scopeLine: 619, flags: DIFlagProtected | DIFlagPrototyped | DIFlagNoReturn, spFlags: DISPFlagOptimized)
!165 = !DISubroutineType(types: !166)
!166 = !{null, !167}
!167 = !DIDerivedType(tag: DW_TAG_pointer_type, baseType: !168, size: 64, flags: DIFlagArtificial | DIFlagObjectPointer)
!168 = !DIDerivedType(tag: DW_TAG_const_type, baseType: !162)
!169 = !DISubprogram(name: "__throw_out_of_range", linkageName: "_ZNKSt3__121__basic_string_commonILb1EE20__throw_out_of_rangeEv", scope: !162, file: !159, line: 620, type: !165, scopeLine: 620, flags: DIFlagProtected | DIFlagPrototyped | DIFlagNoReturn, spFlags: DISPFlagOptimized)
!170 = !{!171}
!171 = !DITemplateValueParameter(type: !172, value: i8 1)
!172 = !DIBasicType(name: "bool", size: 8, encoding: DW_ATE_boolean)
!173 = !DIDerivedType(tag: DW_TAG_member, name: "__short_mask", scope: !158, file: !159, line: 765, baseType: !174, flags: DIFlagStaticMember, extraData: i64 1)
!174 = !DIDerivedType(tag: DW_TAG_const_type, baseType: !175)
!175 = !DIDerivedType(tag: DW_TAG_typedef, name: "size_type", scope: !158, file: !159, line: 700, baseType: !176)
!176 = !DIDerivedType(tag: DW_TAG_typedef, name: "size_type", scope: !178, file: !177, line: 238, baseType: !243)
!177 = !DIFile(filename: "LLVM/llvm/build-release-clang-lldb-13.0.0/bin/../include/c++/v1/__memory/allocator_traits.h", directory: "/Users/jryans/Projects")
!178 = distinct !DICompositeType(tag: DW_TAG_structure_type, name: "allocator_traits<std::__1::allocator<char> >", scope: !13, file: !177, line: 229, size: 8, flags: DIFlagTypePassByValue, elements: !179, templateParams: !241, identifier: "_ZTSNSt3__116allocator_traitsINS_9allocatorIcEEEE")
!179 = !{!180, !238}
!180 = !DISubprogram(name: "allocate", linkageName: "_ZNSt3__116allocator_traitsINS_9allocatorIcEEE8allocateERS2_m", scope: !178, file: !177, line: 261, type: !181, scopeLine: 261, flags: DIFlagPrototyped | DIFlagStaticMember, spFlags: DISPFlagOptimized)
!181 = !DISubroutineType(types: !182)
!182 = !{!183, !236, !176}
!183 = !DIDerivedType(tag: DW_TAG_typedef, name: "pointer", scope: !178, file: !177, line: 233, baseType: !184)
!184 = !DIDerivedType(tag: DW_TAG_typedef, name: "pointer", scope: !186, file: !185, line: 123, baseType: !205)
!185 = !DIFile(filename: "LLVM/llvm/build-release-clang-lldb-13.0.0/bin/../include/c++/v1/__memory/allocator.h", directory: "/Users/jryans/Projects")
!186 = distinct !DICompositeType(tag: DW_TAG_class_type, name: "allocator<char>", scope: !13, file: !185, line: 83, size: 8, flags: DIFlagTypePassByValue | DIFlagNonTrivial, elements: !187, templateParams: !234, identifier: "_ZTSNSt3__19allocatorIcEE")
!187 = !{!188, !198, !202, !206, !209, !216, !222, !227, !231}
!188 = !DIDerivedType(tag: DW_TAG_inheritance, scope: !186, baseType: !189, extraData: i32 0)
!189 = distinct !DICompositeType(tag: DW_TAG_structure_type, name: "__non_trivial_if<true, std::__1::allocator<char> >", scope: !13, file: !185, line: 72, size: 8, flags: DIFlagTypePassByValue | DIFlagNonTrivial, elements: !190, templateParams: !195, identifier: "_ZTSNSt3__116__non_trivial_ifILb1ENS_9allocatorIcEEEE")
!190 = !{!191}
!191 = !DISubprogram(name: "__non_trivial_if", scope: !189, file: !185, line: 74, type: !192, scopeLine: 74, flags: DIFlagPrototyped, spFlags: DISPFlagOptimized)
!192 = !DISubroutineType(types: !193)
!193 = !{null, !194}
!194 = !DIDerivedType(tag: DW_TAG_pointer_type, baseType: !189, size: 64, flags: DIFlagArtificial | DIFlagObjectPointer)
!195 = !{!196, !197}
!196 = !DITemplateValueParameter(name: "_Cond", type: !172, value: i8 1)
!197 = !DITemplateTypeParameter(name: "_Unique", type: !186)
!198 = !DISubprogram(name: "allocator", scope: !186, file: !185, line: 94, type: !199, scopeLine: 94, flags: DIFlagPublic | DIFlagPrototyped, spFlags: DISPFlagOptimized)
!199 = !DISubroutineType(types: !200)
!200 = !{null, !201}
!201 = !DIDerivedType(tag: DW_TAG_pointer_type, baseType: !186, size: 64, flags: DIFlagArtificial | DIFlagObjectPointer)
!202 = !DISubprogram(name: "allocate", linkageName: "_ZNSt3__19allocatorIcE8allocateEm", scope: !186, file: !185, line: 101, type: !203, scopeLine: 101, flags: DIFlagPublic | DIFlagPrototyped, spFlags: DISPFlagOptimized)
!203 = !DISubroutineType(types: !204)
!204 = !{!205, !201, !79}
!205 = !DIDerivedType(tag: DW_TAG_pointer_type, baseType: !150, size: 64)
!206 = !DISubprogram(name: "deallocate", linkageName: "_ZNSt3__19allocatorIcE10deallocateEPcm", scope: !186, file: !185, line: 113, type: !207, scopeLine: 113, flags: DIFlagPublic | DIFlagPrototyped, spFlags: DISPFlagOptimized)
!207 = !DISubroutineType(types: !208)
!208 = !{null, !201, !205, !79}
!209 = !DISubprogram(name: "address", linkageName: "_ZNKSt3__19allocatorIcE7addressERc", scope: !186, file: !185, line: 134, type: !210, scopeLine: 134, flags: DIFlagPublic | DIFlagPrototyped, spFlags: DISPFlagOptimized)
!210 = !DISubroutineType(types: !211)
!211 = !{!184, !212, !214}
!212 = !DIDerivedType(tag: DW_TAG_pointer_type, baseType: !213, size: 64, flags: DIFlagArtificial | DIFlagObjectPointer)
!213 = !DIDerivedType(tag: DW_TAG_const_type, baseType: !186)
!214 = !DIDerivedType(tag: DW_TAG_typedef, name: "reference", scope: !186, file: !185, line: 125, baseType: !215)
!215 = !DIDerivedType(tag: DW_TAG_reference_type, baseType: !150, size: 64)
!216 = !DISubprogram(name: "address", linkageName: "_ZNKSt3__19allocatorIcE7addressERKc", scope: !186, file: !185, line: 138, type: !217, scopeLine: 138, flags: DIFlagPublic | DIFlagPrototyped, spFlags: DISPFlagOptimized)
!217 = !DISubroutineType(types: !218)
!218 = !{!219, !212, !220}
!219 = !DIDerivedType(tag: DW_TAG_typedef, name: "const_pointer", scope: !186, file: !185, line: 124, baseType: !148)
!220 = !DIDerivedType(tag: DW_TAG_typedef, name: "const_reference", scope: !186, file: !185, line: 126, baseType: !221)
!221 = !DIDerivedType(tag: DW_TAG_reference_type, baseType: !149, size: 64)
!222 = !DISubprogram(name: "allocate", linkageName: "_ZNSt3__19allocatorIcE8allocateEmPKv", scope: !186, file: !185, line: 143, type: !223, scopeLine: 143, flags: DIFlagPublic | DIFlagPrototyped, spFlags: DISPFlagOptimized)
!223 = !DISubroutineType(types: !224)
!224 = !{!205, !201, !79, !225}
!225 = !DIDerivedType(tag: DW_TAG_pointer_type, baseType: !226, size: 64)
!226 = !DIDerivedType(tag: DW_TAG_const_type, baseType: null)
!227 = !DISubprogram(name: "max_size", linkageName: "_ZNKSt3__19allocatorIcE8max_sizeEv", scope: !186, file: !185, line: 147, type: !228, scopeLine: 147, flags: DIFlagPublic | DIFlagPrototyped, spFlags: DISPFlagOptimized)
!228 = !DISubroutineType(types: !229)
!229 = !{!230, !212}
!230 = !DIDerivedType(tag: DW_TAG_typedef, name: "size_type", file: !185, line: 87, baseType: !79)
!231 = !DISubprogram(name: "destroy", linkageName: "_ZNSt3__19allocatorIcE7destroyEPc", scope: !186, file: !185, line: 158, type: !232, scopeLine: 158, flags: DIFlagPublic | DIFlagPrototyped, spFlags: DISPFlagOptimized)
!232 = !DISubroutineType(types: !233)
!233 = !{null, !201, !184}
!234 = !{!235}
!235 = !DITemplateTypeParameter(name: "_Tp", type: !150)
!236 = !DIDerivedType(tag: DW_TAG_reference_type, baseType: !237, size: 64)
!237 = !DIDerivedType(tag: DW_TAG_typedef, name: "allocator_type", scope: !178, file: !177, line: 231, baseType: !186)
!238 = !DISubprogram(name: "deallocate", linkageName: "_ZNSt3__116allocator_traitsINS_9allocatorIcEEE10deallocateERS2_Pcm", scope: !178, file: !177, line: 281, type: !239, scopeLine: 281, flags: DIFlagPrototyped | DIFlagStaticMember, spFlags: DISPFlagOptimized)
!239 = !DISubroutineType(types: !240)
!240 = !{null, !236, !183, !176}
!241 = !{!242}
!242 = !DITemplateTypeParameter(name: "_Alloc", type: !186)
!243 = !DIDerivedType(tag: DW_TAG_typedef, name: "size_type", scope: !186, file: !185, line: 87, baseType: !79)
!244 = !DIDerivedType(tag: DW_TAG_member, name: "__long_mask", scope: !158, file: !159, line: 766, baseType: !174, flags: DIFlagStaticMember, extraData: i64 1)
!245 = !DIDerivedType(tag: DW_TAG_member, name: "__r_", scope: !158, file: !159, line: 803, baseType: !246, size: 192)
!246 = distinct !DICompositeType(tag: DW_TAG_class_type, name: "__compressed_pair<std::__1::basic_string<char, std::__1::char_traits<char>, std::__1::allocator<char> >::__rep, std::__1::allocator<char> >", scope: !13, file: !247, line: 109, size: 192, flags: DIFlagTypePassByValue | DIFlagNonTrivial, elements: !248, templateParams: !371, identifier: "_ZTSNSt3__117__compressed_pairINS_12basic_stringIcNS_11char_traitsIcEENS_9allocatorIcEEE5__repES5_EE")
!247 = !DIFile(filename: "LLVM/llvm/build-release-clang-lldb-13.0.0/bin/../include/c++/v1/__memory/compressed_pair.h", directory: "/Users/jryans/Projects")
!248 = !{!249, !313, !343, !347, !352, !355, !358, !363, !367}
!249 = !DIDerivedType(tag: DW_TAG_inheritance, scope: !246, baseType: !250, extraData: i32 0)
!250 = distinct !DICompositeType(tag: DW_TAG_structure_type, name: "__compressed_pair_elem<std::__1::basic_string<char, std::__1::char_traits<char>, std::__1::allocator<char> >::__rep, 0, false>", scope: !13, file: !247, line: 35, size: 192, flags: DIFlagTypePassByValue | DIFlagNonTrivial, elements: !251, templateParams: !309, identifier: "_ZTSNSt3__122__compressed_pair_elemINS_12basic_stringIcNS_11char_traitsIcEENS_9allocatorIcEEE5__repELi0ELb0EEE")
!251 = !{!252, !286, !292, !296, !301}
!252 = !DIDerivedType(tag: DW_TAG_member, name: "__value_", scope: !250, file: !247, line: 70, baseType: !253, size: 192, flags: DIFlagPrivate)
!253 = distinct !DICompositeType(tag: DW_TAG_structure_type, name: "__rep", scope: !158, file: !159, line: 793, size: 192, flags: DIFlagTypePassByValue, elements: !254, identifier: "_ZTSNSt3__112basic_stringIcNS_11char_traitsIcEENS_9allocatorIcEEE5__repE")
!254 = !{!255}
!255 = !DIDerivedType(tag: DW_TAG_member, scope: !253, file: !159, line: 795, baseType: !256, size: 192)
!256 = distinct !DICompositeType(tag: DW_TAG_union_type, scope: !253, file: !159, line: 795, size: 192, flags: DIFlagExportSymbols | DIFlagTypePassByValue, elements: !257, identifier: "_ZTSNSt3__112basic_stringIcNS_11char_traitsIcEENS_9allocatorIcEEE5__repUt_E")
!257 = !{!258, !265, !279}
!258 = !DIDerivedType(tag: DW_TAG_member, name: "__l", scope: !256, file: !159, line: 797, baseType: !259, size: 192)
!259 = distinct !DICompositeType(tag: DW_TAG_structure_type, name: "__long", scope: !158, file: !159, line: 754, size: 192, flags: DIFlagTypePassByValue, elements: !260, identifier: "_ZTSNSt3__112basic_stringIcNS_11char_traitsIcEENS_9allocatorIcEEE6__longE")
!260 = !{!261, !262, !263}
!261 = !DIDerivedType(tag: DW_TAG_member, name: "__cap_", scope: !259, file: !159, line: 756, baseType: !175, size: 64)
!262 = !DIDerivedType(tag: DW_TAG_member, name: "__size_", scope: !259, file: !159, line: 757, baseType: !175, size: 64, offset: 64)
!263 = !DIDerivedType(tag: DW_TAG_member, name: "__data_", scope: !259, file: !159, line: 758, baseType: !264, size: 64, offset: 128)
!264 = !DIDerivedType(tag: DW_TAG_typedef, name: "pointer", scope: !158, file: !159, line: 704, baseType: !183)
!265 = !DIDerivedType(tag: DW_TAG_member, name: "__s", scope: !256, file: !159, line: 798, baseType: !266, size: 192)
!266 = distinct !DICompositeType(tag: DW_TAG_structure_type, name: "__short", scope: !158, file: !159, line: 772, size: 192, flags: DIFlagTypePassByValue, elements: !267, identifier: "_ZTSNSt3__112basic_stringIcNS_11char_traitsIcEENS_9allocatorIcEEE7__shortE")
!267 = !{!268, !275}
!268 = !DIDerivedType(tag: DW_TAG_member, scope: !266, file: !159, line: 774, baseType: !269, size: 8)
!269 = distinct !DICompositeType(tag: DW_TAG_union_type, scope: !266, file: !159, line: 774, size: 8, flags: DIFlagExportSymbols | DIFlagTypePassByValue, elements: !270, identifier: "_ZTSNSt3__112basic_stringIcNS_11char_traitsIcEENS_9allocatorIcEEE7__shortUt_E")
!270 = !{!271, !273}
!271 = !DIDerivedType(tag: DW_TAG_member, name: "__size_", scope: !269, file: !159, line: 776, baseType: !272, size: 8)
!272 = !DIBasicType(name: "unsigned char", size: 8, encoding: DW_ATE_unsigned_char)
!273 = !DIDerivedType(tag: DW_TAG_member, name: "__lx", scope: !269, file: !159, line: 777, baseType: !274, size: 8)
!274 = !DIDerivedType(tag: DW_TAG_typedef, name: "value_type", scope: !158, file: !159, line: 697, baseType: !150)
!275 = !DIDerivedType(tag: DW_TAG_member, name: "__data_", scope: !266, file: !159, line: 779, baseType: !276, size: 184, offset: 8)
!276 = !DICompositeType(tag: DW_TAG_array_type, baseType: !274, size: 184, elements: !277)
!277 = !{!278}
!278 = !DISubrange(count: 23)
!279 = !DIDerivedType(tag: DW_TAG_member, name: "__r", scope: !256, file: !159, line: 799, baseType: !280, size: 192)
!280 = distinct !DICompositeType(tag: DW_TAG_structure_type, name: "__raw", scope: !158, file: !159, line: 788, size: 192, flags: DIFlagTypePassByValue, elements: !281, identifier: "_ZTSNSt3__112basic_stringIcNS_11char_traitsIcEENS_9allocatorIcEEE5__rawE")
!281 = !{!282}
!282 = !DIDerivedType(tag: DW_TAG_member, name: "__words", scope: !280, file: !159, line: 790, baseType: !283, size: 192)
!283 = !DICompositeType(tag: DW_TAG_array_type, baseType: !175, size: 192, elements: !284)
!284 = !{!285}
!285 = !DISubrange(count: 3)
!286 = !DISubprogram(name: "__compressed_pair_elem", scope: !250, file: !247, line: 41, type: !287, scopeLine: 41, flags: DIFlagPrototyped, spFlags: DISPFlagOptimized)
!287 = !DISubroutineType(types: !288)
!288 = !{null, !289, !290}
!289 = !DIDerivedType(tag: DW_TAG_pointer_type, baseType: !250, size: 64, flags: DIFlagArtificial | DIFlagObjectPointer)
!290 = distinct !DICompositeType(tag: DW_TAG_structure_type, name: "__default_init_tag", scope: !13, file: !247, line: 29, size: 8, flags: DIFlagTypePassByValue, elements: !291, identifier: "_ZTSNSt3__118__default_init_tagE")
!291 = !{}
!292 = !DISubprogram(name: "__compressed_pair_elem", scope: !250, file: !247, line: 43, type: !293, scopeLine: 43, flags: DIFlagPrototyped, spFlags: DISPFlagOptimized)
!293 = !DISubroutineType(types: !294)
!294 = !{null, !289, !295}
!295 = distinct !DICompositeType(tag: DW_TAG_structure_type, name: "__value_init_tag", scope: !13, file: !247, line: 30, size: 8, flags: DIFlagTypePassByValue, elements: !291, identifier: "_ZTSNSt3__116__value_init_tagE")
!296 = !DISubprogram(name: "__get", linkageName: "_ZNSt3__122__compressed_pair_elemINS_12basic_stringIcNS_11char_traitsIcEENS_9allocatorIcEEE5__repELi0ELb0EE5__getEv", scope: !250, file: !247, line: 65, type: !297, scopeLine: 65, flags: DIFlagPrototyped, spFlags: DISPFlagOptimized)
!297 = !DISubroutineType(types: !298)
!298 = !{!299, !289}
!299 = !DIDerivedType(tag: DW_TAG_typedef, name: "reference", scope: !250, file: !247, line: 37, baseType: !300)
!300 = !DIDerivedType(tag: DW_TAG_reference_type, baseType: !253, size: 64)
!301 = !DISubprogram(name: "__get", linkageName: "_ZNKSt3__122__compressed_pair_elemINS_12basic_stringIcNS_11char_traitsIcEENS_9allocatorIcEEE5__repELi0ELb0EE5__getEv", scope: !250, file: !247, line: 67, type: !302, scopeLine: 67, flags: DIFlagPrototyped, spFlags: DISPFlagOptimized)
!302 = !DISubroutineType(types: !303)
!303 = !{!304, !307}
!304 = !DIDerivedType(tag: DW_TAG_typedef, name: "const_reference", scope: !250, file: !247, line: 38, baseType: !305)
!305 = !DIDerivedType(tag: DW_TAG_reference_type, baseType: !306, size: 64)
!306 = !DIDerivedType(tag: DW_TAG_const_type, baseType: !253)
!307 = !DIDerivedType(tag: DW_TAG_pointer_type, baseType: !308, size: 64, flags: DIFlagArtificial | DIFlagObjectPointer)
!308 = !DIDerivedType(tag: DW_TAG_const_type, baseType: !250)
!309 = !{!310, !311, !312}
!310 = !DITemplateTypeParameter(name: "_Tp", type: !253)
!311 = !DITemplateValueParameter(name: "_Idx", type: !21, value: i32 0)
!312 = !DITemplateValueParameter(name: "_CanBeEmptyBase", type: !172, value: i8 0)
!313 = !DIDerivedType(tag: DW_TAG_inheritance, scope: !246, baseType: !314, extraData: i32 0)
!314 = distinct !DICompositeType(tag: DW_TAG_structure_type, name: "__compressed_pair_elem<std::__1::allocator<char>, 1, true>", scope: !13, file: !247, line: 74, size: 8, flags: DIFlagTypePassByValue | DIFlagNonTrivial, elements: !315, templateParams: !339, identifier: "_ZTSNSt3__122__compressed_pair_elemINS_9allocatorIcEELi1ELb1EEE")
!315 = !{!316, !317, !321, !324, !327, !332}
!316 = !DIDerivedType(tag: DW_TAG_inheritance, scope: !314, baseType: !186, flags: DIFlagPrivate, extraData: i32 0)
!317 = !DISubprogram(name: "__compressed_pair_elem", scope: !314, file: !247, line: 80, type: !318, scopeLine: 80, flags: DIFlagPrototyped, spFlags: DISPFlagOptimized)
!318 = !DISubroutineType(types: !319)
!319 = !{null, !320}
!320 = !DIDerivedType(tag: DW_TAG_pointer_type, baseType: !314, size: 64, flags: DIFlagArtificial | DIFlagObjectPointer)
!321 = !DISubprogram(name: "__compressed_pair_elem", scope: !314, file: !247, line: 82, type: !322, scopeLine: 82, flags: DIFlagPrototyped, spFlags: DISPFlagOptimized)
!322 = !DISubroutineType(types: !323)
!323 = !{null, !320, !290}
!324 = !DISubprogram(name: "__compressed_pair_elem", scope: !314, file: !247, line: 84, type: !325, scopeLine: 84, flags: DIFlagPrototyped, spFlags: DISPFlagOptimized)
!325 = !DISubroutineType(types: !326)
!326 = !{null, !320, !295}
!327 = !DISubprogram(name: "__get", linkageName: "_ZNSt3__122__compressed_pair_elemINS_9allocatorIcEELi1ELb1EE5__getEv", scope: !314, file: !247, line: 103, type: !328, scopeLine: 103, flags: DIFlagPrototyped, spFlags: DISPFlagOptimized)
!328 = !DISubroutineType(types: !329)
!329 = !{!330, !320}
!330 = !DIDerivedType(tag: DW_TAG_typedef, name: "reference", scope: !314, file: !247, line: 76, baseType: !331)
!331 = !DIDerivedType(tag: DW_TAG_reference_type, baseType: !186, size: 64)
!332 = !DISubprogram(name: "__get", linkageName: "_ZNKSt3__122__compressed_pair_elemINS_9allocatorIcEELi1ELb1EE5__getEv", scope: !314, file: !247, line: 105, type: !333, scopeLine: 105, flags: DIFlagPrototyped, spFlags: DISPFlagOptimized)
!333 = !DISubroutineType(types: !334)
!334 = !{!335, !337}
!335 = !DIDerivedType(tag: DW_TAG_typedef, name: "const_reference", scope: !314, file: !247, line: 77, baseType: !336)
!336 = !DIDerivedType(tag: DW_TAG_reference_type, baseType: !213, size: 64)
!337 = !DIDerivedType(tag: DW_TAG_pointer_type, baseType: !338, size: 64, flags: DIFlagArtificial | DIFlagObjectPointer)
!338 = !DIDerivedType(tag: DW_TAG_const_type, baseType: !314)
!339 = !{!340, !341, !342}
!340 = !DITemplateTypeParameter(name: "_Tp", type: !186)
!341 = !DITemplateValueParameter(name: "_Idx", type: !21, value: i32 1)
!342 = !DITemplateValueParameter(name: "_CanBeEmptyBase", type: !172, value: i8 1)
!343 = !DISubprogram(name: "first", linkageName: "_ZNSt3__117__compressed_pairINS_12basic_stringIcNS_11char_traitsIcEENS_9allocatorIcEEE5__repES5_E5firstEv", scope: !246, file: !247, line: 150, type: !344, scopeLine: 150, flags: DIFlagPublic | DIFlagPrototyped, spFlags: DISPFlagOptimized)
!344 = !DISubroutineType(types: !345)
!345 = !{!299, !346}
!346 = !DIDerivedType(tag: DW_TAG_pointer_type, baseType: !246, size: 64, flags: DIFlagArtificial | DIFlagObjectPointer)
!347 = !DISubprogram(name: "first", linkageName: "_ZNKSt3__117__compressed_pairINS_12basic_stringIcNS_11char_traitsIcEENS_9allocatorIcEEE5__repES5_E5firstEv", scope: !246, file: !247, line: 155, type: !348, scopeLine: 155, flags: DIFlagPublic | DIFlagPrototyped, spFlags: DISPFlagOptimized)
!348 = !DISubroutineType(types: !349)
!349 = !{!304, !350}
!350 = !DIDerivedType(tag: DW_TAG_pointer_type, baseType: !351, size: 64, flags: DIFlagArtificial | DIFlagObjectPointer)
!351 = !DIDerivedType(tag: DW_TAG_const_type, baseType: !246)
!352 = !DISubprogram(name: "second", linkageName: "_ZNSt3__117__compressed_pairINS_12basic_stringIcNS_11char_traitsIcEENS_9allocatorIcEEE5__repES5_E6secondEv", scope: !246, file: !247, line: 160, type: !353, scopeLine: 160, flags: DIFlagPublic | DIFlagPrototyped, spFlags: DISPFlagOptimized)
!353 = !DISubroutineType(types: !354)
!354 = !{!330, !346}
!355 = !DISubprogram(name: "second", linkageName: "_ZNKSt3__117__compressed_pairINS_12basic_stringIcNS_11char_traitsIcEENS_9allocatorIcEEE5__repES5_E6secondEv", scope: !246, file: !247, line: 165, type: !356, scopeLine: 165, flags: DIFlagPublic | DIFlagPrototyped, spFlags: DISPFlagOptimized)
!356 = !DISubroutineType(types: !357)
!357 = !{!335, !350}
!358 = !DISubprogram(name: "__get_first_base", linkageName: "_ZNSt3__117__compressed_pairINS_12basic_stringIcNS_11char_traitsIcEENS_9allocatorIcEEE5__repES5_E16__get_first_baseEPS8_", scope: !246, file: !247, line: 170, type: !359, scopeLine: 170, flags: DIFlagPublic | DIFlagPrototyped | DIFlagStaticMember, spFlags: DISPFlagOptimized)
!359 = !DISubroutineType(types: !360)
!360 = !{!361, !362}
!361 = !DIDerivedType(tag: DW_TAG_pointer_type, baseType: !250, size: 64)
!362 = !DIDerivedType(tag: DW_TAG_pointer_type, baseType: !246, size: 64)
!363 = !DISubprogram(name: "__get_second_base", linkageName: "_ZNSt3__117__compressed_pairINS_12basic_stringIcNS_11char_traitsIcEENS_9allocatorIcEEE5__repES5_E17__get_second_baseEPS8_", scope: !246, file: !247, line: 174, type: !364, scopeLine: 174, flags: DIFlagPublic | DIFlagPrototyped | DIFlagStaticMember, spFlags: DISPFlagOptimized)
!364 = !DISubroutineType(types: !365)
!365 = !{!366, !362}
!366 = !DIDerivedType(tag: DW_TAG_pointer_type, baseType: !314, size: 64)
!367 = !DISubprogram(name: "swap", linkageName: "_ZNSt3__117__compressed_pairINS_12basic_stringIcNS_11char_traitsIcEENS_9allocatorIcEEE5__repES5_E4swapERS8_", scope: !246, file: !247, line: 179, type: !368, scopeLine: 179, flags: DIFlagPublic | DIFlagPrototyped, spFlags: DISPFlagOptimized)
!368 = !DISubroutineType(types: !369)
!369 = !{null, !346, !370}
!370 = !DIDerivedType(tag: DW_TAG_reference_type, baseType: !246, size: 64)
!371 = !{!372, !373}
!372 = !DITemplateTypeParameter(name: "_T1", type: !253)
!373 = !DITemplateTypeParameter(name: "_T2", type: !186)
!374 = !DIDerivedType(tag: DW_TAG_member, name: "npos", scope: !158, file: !159, line: 807, baseType: !174, flags: DIFlagPublic | DIFlagStaticMember, extraData: i64 -1)
!375 = !DISubprogram(name: "basic_string", scope: !158, file: !159, line: 809, type: !376, scopeLine: 809, flags: DIFlagPublic | DIFlagPrototyped, spFlags: DISPFlagOptimized)
!376 = !DISubroutineType(types: !377)
!377 = !{null, !378}
!378 = !DIDerivedType(tag: DW_TAG_pointer_type, baseType: !158, size: 64, flags: DIFlagArtificial | DIFlagObjectPointer)
!379 = !DISubprogram(name: "basic_string", scope: !158, file: !159, line: 812, type: !380, scopeLine: 812, flags: DIFlagPublic | DIFlagExplicit | DIFlagPrototyped, spFlags: DISPFlagOptimized)
!380 = !DISubroutineType(types: !381)
!381 = !{null, !378, !382}
!382 = !DIDerivedType(tag: DW_TAG_reference_type, baseType: !383, size: 64)
!383 = !DIDerivedType(tag: DW_TAG_const_type, baseType: !384)
!384 = !DIDerivedType(tag: DW_TAG_typedef, name: "allocator_type", scope: !158, file: !159, line: 698, baseType: !186)
!385 = !DISubprogram(name: "basic_string", scope: !158, file: !159, line: 819, type: !386, scopeLine: 819, flags: DIFlagPublic | DIFlagPrototyped, spFlags: DISPFlagOptimized)
!386 = !DISubroutineType(types: !387)
!387 = !{null, !378, !388}
!388 = !DIDerivedType(tag: DW_TAG_reference_type, baseType: !389, size: 64)
!389 = !DIDerivedType(tag: DW_TAG_const_type, baseType: !158)
!390 = !DISubprogram(name: "basic_string", scope: !158, file: !159, line: 820, type: !391, scopeLine: 820, flags: DIFlagPublic | DIFlagPrototyped, spFlags: DISPFlagOptimized)
!391 = !DISubroutineType(types: !392)
!392 = !{null, !378, !388, !382}
!393 = !DISubprogram(name: "basic_string", scope: !158, file: !159, line: 824, type: !394, scopeLine: 824, flags: DIFlagPublic | DIFlagPrototyped, spFlags: DISPFlagOptimized)
!394 = !DISubroutineType(types: !395)
!395 = !{null, !378, !396}
!396 = !DIDerivedType(tag: DW_TAG_rvalue_reference_type, baseType: !158, size: 64)
!397 = !DISubprogram(name: "basic_string", scope: !158, file: !159, line: 832, type: !398, scopeLine: 832, flags: DIFlagPublic | DIFlagPrototyped, spFlags: DISPFlagOptimized)
!398 = !DISubroutineType(types: !399)
!399 = !{null, !378, !396, !382}
!400 = !DISubprogram(name: "basic_string", scope: !158, file: !159, line: 854, type: !401, scopeLine: 854, flags: DIFlagPublic | DIFlagPrototyped, spFlags: DISPFlagOptimized)
!401 = !DISubroutineType(types: !402)
!402 = !{null, !378, !148, !175}
!403 = !DISubprogram(name: "basic_string", scope: !158, file: !159, line: 856, type: !404, scopeLine: 856, flags: DIFlagPublic | DIFlagPrototyped, spFlags: DISPFlagOptimized)
!404 = !DISubroutineType(types: !405)
!405 = !{null, !378, !148, !175, !336}
!406 = !DISubprogram(name: "basic_string", scope: !158, file: !159, line: 858, type: !407, scopeLine: 858, flags: DIFlagPublic | DIFlagPrototyped, spFlags: DISPFlagOptimized)
!407 = !DISubroutineType(types: !408)
!408 = !{null, !378, !175, !150}
!409 = !DISubprogram(name: "basic_string", scope: !158, file: !159, line: 864, type: !410, scopeLine: 864, flags: DIFlagPublic | DIFlagPrototyped, spFlags: DISPFlagOptimized)
!410 = !DISubroutineType(types: !411)
!411 = !{null, !378, !388, !175, !175, !336}
!412 = !DISubprogram(name: "basic_string", scope: !158, file: !159, line: 867, type: !413, scopeLine: 867, flags: DIFlagPublic | DIFlagPrototyped, spFlags: DISPFlagOptimized)
!413 = !DISubroutineType(types: !414)
!414 = !{null, !378, !388, !175, !336}
!415 = !DISubprogram(name: "basic_string", scope: !158, file: !159, line: 892, type: !416, scopeLine: 892, flags: DIFlagPublic | DIFlagPrototyped, spFlags: DISPFlagOptimized)
!416 = !DISubroutineType(types: !417)
!417 = !{null, !378, !418}
!418 = distinct !DICompositeType(tag: DW_TAG_class_type, name: "initializer_list<char>", scope: !14, file: !419, line: 58, size: 128, flags: DIFlagTypePassByValue | DIFlagNonTrivial, elements: !420, templateParams: !439, identifier: "_ZTSSt16initializer_listIcE")
!419 = !DIFile(filename: "LLVM/llvm/build-release-clang-lldb-13.0.0/bin/../include/c++/v1/initializer_list", directory: "/Users/jryans/Projects")
!420 = !{!421, !422, !423, !427, !430, !435, !438}
!421 = !DIDerivedType(tag: DW_TAG_member, name: "__begin_", scope: !418, file: !419, line: 60, baseType: !148, size: 64)
!422 = !DIDerivedType(tag: DW_TAG_member, name: "__size_", scope: !418, file: !419, line: 61, baseType: !79, size: 64, offset: 64)
!423 = !DISubprogram(name: "initializer_list", scope: !418, file: !419, line: 65, type: !424, scopeLine: 65, flags: DIFlagPrototyped, spFlags: DISPFlagOptimized)
!424 = !DISubroutineType(types: !425)
!425 = !{null, !426, !148, !79}
!426 = !DIDerivedType(tag: DW_TAG_pointer_type, baseType: !418, size: 64, flags: DIFlagArtificial | DIFlagObjectPointer)
!427 = !DISubprogram(name: "initializer_list", scope: !418, file: !419, line: 80, type: !428, scopeLine: 80, flags: DIFlagPublic | DIFlagPrototyped, spFlags: DISPFlagOptimized)
!428 = !DISubroutineType(types: !429)
!429 = !{null, !426}
!430 = !DISubprogram(name: "size", linkageName: "_ZNKSt16initializer_listIcE4sizeEv", scope: !418, file: !419, line: 84, type: !431, scopeLine: 84, flags: DIFlagPublic | DIFlagPrototyped, spFlags: DISPFlagOptimized)
!431 = !DISubroutineType(types: !432)
!432 = !{!79, !433}
!433 = !DIDerivedType(tag: DW_TAG_pointer_type, baseType: !434, size: 64, flags: DIFlagArtificial | DIFlagObjectPointer)
!434 = !DIDerivedType(tag: DW_TAG_const_type, baseType: !418)
!435 = !DISubprogram(name: "begin", linkageName: "_ZNKSt16initializer_listIcE5beginEv", scope: !418, file: !419, line: 88, type: !436, scopeLine: 88, flags: DIFlagPublic | DIFlagPrototyped, spFlags: DISPFlagOptimized)
!436 = !DISubroutineType(types: !437)
!437 = !{!148, !433}
!438 = !DISubprogram(name: "end", linkageName: "_ZNKSt16initializer_listIcE3endEv", scope: !418, file: !419, line: 92, type: !436, scopeLine: 92, flags: DIFlagPublic | DIFlagPrototyped, spFlags: DISPFlagOptimized)
!439 = !{!440}
!440 = !DITemplateTypeParameter(name: "_Ep", type: !150)
!441 = !DISubprogram(name: "basic_string", scope: !158, file: !159, line: 894, type: !442, scopeLine: 894, flags: DIFlagPublic | DIFlagPrototyped, spFlags: DISPFlagOptimized)
!442 = !DISubroutineType(types: !443)
!443 = !{null, !378, !418, !336}
!444 = !DISubprogram(name: "~basic_string", scope: !158, file: !159, line: 897, type: !376, scopeLine: 897, flags: DIFlagPublic | DIFlagPrototyped, spFlags: DISPFlagOptimized)
!445 = !DISubprogram(name: "operator basic_string_view", linkageName: "_ZNKSt3__112basic_stringIcNS_11char_traitsIcEENS_9allocatorIcEEEcvNS_17basic_string_viewIcS2_EEEv", scope: !158, file: !159, line: 900, type: !446, scopeLine: 900, flags: DIFlagPublic | DIFlagPrototyped, spFlags: DISPFlagOptimized)
!446 = !DISubroutineType(types: !447)
!447 = !{!448, !633}
!448 = !DIDerivedType(tag: DW_TAG_typedef, name: "__self_view", scope: !158, file: !159, line: 695, baseType: !449)
!449 = distinct !DICompositeType(tag: DW_TAG_class_type, name: "basic_string_view<char, std::__1::char_traits<char> >", scope: !13, file: !450, line: 231, size: 128, flags: DIFlagTypePassByValue | DIFlagNonTrivial, elements: !451, templateParams: !581, identifier: "_ZTSNSt3__117basic_string_viewIcNS_11char_traitsIcEEEE")
!450 = !DIFile(filename: "LLVM/llvm/build-release-clang-lldb-13.0.0/bin/../include/c++/v1/string_view", directory: "/Users/jryans/Projects")
!451 = !{!452, !455, !459, !460, !464, !469, !473, !476, !479, !485, !486, !487, !488, !494, !495, !496, !497, !500, !501, !502, !505, !509, !510, !513, !514, !517, !520, !521, !524, !528, !531, !534, !537, !540, !543, !546, !549, !552, !555, !558, !561, !562, !563, !564, !565, !566, !567, !568, !569, !570, !571, !572, !573, !574, !575, !576, !577, !578, !579, !580}
!452 = !DIDerivedType(tag: DW_TAG_member, name: "npos", scope: !449, file: !450, line: 246, baseType: !453, flags: DIFlagPublic | DIFlagStaticMember, extraData: i64 -1)
!453 = !DIDerivedType(tag: DW_TAG_const_type, baseType: !454)
!454 = !DIDerivedType(tag: DW_TAG_typedef, name: "size_type", file: !450, line: 244, baseType: !79)
!455 = !DIDerivedType(tag: DW_TAG_member, name: "__data", scope: !449, file: !450, line: 661, baseType: !456, size: 64)
!456 = !DIDerivedType(tag: DW_TAG_pointer_type, baseType: !457, size: 64)
!457 = !DIDerivedType(tag: DW_TAG_const_type, baseType: !458)
!458 = !DIDerivedType(tag: DW_TAG_typedef, name: "value_type", scope: !449, file: !450, line: 235, baseType: !150)
!459 = !DIDerivedType(tag: DW_TAG_member, name: "__size", scope: !449, file: !450, line: 662, baseType: !454, size: 64, offset: 64)
!460 = !DISubprogram(name: "basic_string_view", scope: !449, file: !450, line: 256, type: !461, scopeLine: 256, flags: DIFlagPublic | DIFlagPrototyped, spFlags: DISPFlagOptimized)
!461 = !DISubroutineType(types: !462)
!462 = !{null, !463}
!463 = !DIDerivedType(tag: DW_TAG_pointer_type, baseType: !449, size: 64, flags: DIFlagArtificial | DIFlagObjectPointer)
!464 = !DISubprogram(name: "basic_string_view", scope: !449, file: !450, line: 259, type: !465, scopeLine: 259, flags: DIFlagPublic | DIFlagPrototyped, spFlags: DISPFlagOptimized)
!465 = !DISubroutineType(types: !466)
!466 = !{null, !463, !467}
!467 = !DIDerivedType(tag: DW_TAG_reference_type, baseType: !468, size: 64)
!468 = !DIDerivedType(tag: DW_TAG_const_type, baseType: !449)
!469 = !DISubprogram(name: "operator=", linkageName: "_ZNSt3__117basic_string_viewIcNS_11char_traitsIcEEEaSERKS3_", scope: !449, file: !450, line: 262, type: !470, scopeLine: 262, flags: DIFlagPublic | DIFlagPrototyped, spFlags: DISPFlagOptimized)
!470 = !DISubroutineType(types: !471)
!471 = !{!472, !463, !467}
!472 = !DIDerivedType(tag: DW_TAG_reference_type, baseType: !449, size: 64)
!473 = !DISubprogram(name: "basic_string_view", scope: !449, file: !450, line: 265, type: !474, scopeLine: 265, flags: DIFlagPublic | DIFlagPrototyped, spFlags: DISPFlagOptimized)
!474 = !DISubroutineType(types: !475)
!475 = !{null, !463, !148, !454}
!476 = !DISubprogram(name: "basic_string_view", scope: !449, file: !450, line: 274, type: !477, scopeLine: 274, flags: DIFlagPublic | DIFlagPrototyped, spFlags: DISPFlagOptimized)
!477 = !DISubroutineType(types: !478)
!478 = !{null, !463, !148}
!479 = !DISubprogram(name: "begin", linkageName: "_ZNKSt3__117basic_string_viewIcNS_11char_traitsIcEEE5beginEv", scope: !449, file: !450, line: 283, type: !480, scopeLine: 283, flags: DIFlagPublic | DIFlagPrototyped, spFlags: DISPFlagOptimized)
!480 = !DISubroutineType(types: !481)
!481 = !{!482, !484}
!482 = !DIDerivedType(tag: DW_TAG_typedef, name: "const_iterator", scope: !449, file: !450, line: 240, baseType: !483)
!483 = !DIDerivedType(tag: DW_TAG_typedef, name: "const_pointer", scope: !449, file: !450, line: 237, baseType: !148)
!484 = !DIDerivedType(tag: DW_TAG_pointer_type, baseType: !468, size: 64, flags: DIFlagArtificial | DIFlagObjectPointer)
!485 = !DISubprogram(name: "end", linkageName: "_ZNKSt3__117basic_string_viewIcNS_11char_traitsIcEEE3endEv", scope: !449, file: !450, line: 286, type: !480, scopeLine: 286, flags: DIFlagPublic | DIFlagPrototyped, spFlags: DISPFlagOptimized)
!486 = !DISubprogram(name: "cbegin", linkageName: "_ZNKSt3__117basic_string_viewIcNS_11char_traitsIcEEE6cbeginEv", scope: !449, file: !450, line: 289, type: !480, scopeLine: 289, flags: DIFlagPublic | DIFlagPrototyped, spFlags: DISPFlagOptimized)
!487 = !DISubprogram(name: "cend", linkageName: "_ZNKSt3__117basic_string_viewIcNS_11char_traitsIcEEE4cendEv", scope: !449, file: !450, line: 292, type: !480, scopeLine: 292, flags: DIFlagPublic | DIFlagPrototyped, spFlags: DISPFlagOptimized)
!488 = !DISubprogram(name: "rbegin", linkageName: "_ZNKSt3__117basic_string_viewIcNS_11char_traitsIcEEE6rbeginEv", scope: !449, file: !450, line: 295, type: !489, scopeLine: 295, flags: DIFlagPublic | DIFlagPrototyped, spFlags: DISPFlagOptimized)
!489 = !DISubroutineType(types: !490)
!490 = !{!491, !484}
!491 = !DIDerivedType(tag: DW_TAG_typedef, name: "const_reverse_iterator", scope: !449, file: !450, line: 242, baseType: !492)
!492 = !DICompositeType(tag: DW_TAG_class_type, name: "reverse_iterator<const char *>", scope: !13, file: !493, line: 37, flags: DIFlagFwdDecl | DIFlagNonTrivial, identifier: "_ZTSNSt3__116reverse_iteratorIPKcEE")
!493 = !DIFile(filename: "LLVM/llvm/build-release-clang-lldb-13.0.0/bin/../include/c++/v1/__iterator/reverse_iterator.h", directory: "/Users/jryans/Projects")
!494 = !DISubprogram(name: "rend", linkageName: "_ZNKSt3__117basic_string_viewIcNS_11char_traitsIcEEE4rendEv", scope: !449, file: !450, line: 298, type: !489, scopeLine: 298, flags: DIFlagPublic | DIFlagPrototyped, spFlags: DISPFlagOptimized)
!495 = !DISubprogram(name: "crbegin", linkageName: "_ZNKSt3__117basic_string_viewIcNS_11char_traitsIcEEE7crbeginEv", scope: !449, file: !450, line: 301, type: !489, scopeLine: 301, flags: DIFlagPublic | DIFlagPrototyped, spFlags: DISPFlagOptimized)
!496 = !DISubprogram(name: "crend", linkageName: "_ZNKSt3__117basic_string_viewIcNS_11char_traitsIcEEE5crendEv", scope: !449, file: !450, line: 304, type: !489, scopeLine: 304, flags: DIFlagPublic | DIFlagPrototyped, spFlags: DISPFlagOptimized)
!497 = !DISubprogram(name: "size", linkageName: "_ZNKSt3__117basic_string_viewIcNS_11char_traitsIcEEE4sizeEv", scope: !449, file: !450, line: 308, type: !498, scopeLine: 308, flags: DIFlagPublic | DIFlagPrototyped, spFlags: DISPFlagOptimized)
!498 = !DISubroutineType(types: !499)
!499 = !{!454, !484}
!500 = !DISubprogram(name: "length", linkageName: "_ZNKSt3__117basic_string_viewIcNS_11char_traitsIcEEE6lengthEv", scope: !449, file: !450, line: 311, type: !498, scopeLine: 311, flags: DIFlagPublic | DIFlagPrototyped, spFlags: DISPFlagOptimized)
!501 = !DISubprogram(name: "max_size", linkageName: "_ZNKSt3__117basic_string_viewIcNS_11char_traitsIcEEE8max_sizeEv", scope: !449, file: !450, line: 314, type: !498, scopeLine: 314, flags: DIFlagPublic | DIFlagPrototyped, spFlags: DISPFlagOptimized)
!502 = !DISubprogram(name: "empty", linkageName: "_ZNKSt3__117basic_string_viewIcNS_11char_traitsIcEEE5emptyEv", scope: !449, file: !450, line: 317, type: !503, scopeLine: 317, flags: DIFlagPublic | DIFlagPrototyped, spFlags: DISPFlagOptimized)
!503 = !DISubroutineType(types: !504)
!504 = !{!172, !484}
!505 = !DISubprogram(name: "operator[]", linkageName: "_ZNKSt3__117basic_string_viewIcNS_11char_traitsIcEEEixEm", scope: !449, file: !450, line: 321, type: !506, scopeLine: 321, flags: DIFlagPublic | DIFlagPrototyped, spFlags: DISPFlagOptimized)
!506 = !DISubroutineType(types: !507)
!507 = !{!508, !484, !454}
!508 = !DIDerivedType(tag: DW_TAG_typedef, name: "const_reference", scope: !449, file: !450, line: 239, baseType: !221)
!509 = !DISubprogram(name: "at", linkageName: "_ZNKSt3__117basic_string_viewIcNS_11char_traitsIcEEE2atEm", scope: !449, file: !450, line: 326, type: !506, scopeLine: 326, flags: DIFlagPublic | DIFlagPrototyped, spFlags: DISPFlagOptimized)
!510 = !DISubprogram(name: "front", linkageName: "_ZNKSt3__117basic_string_viewIcNS_11char_traitsIcEEE5frontEv", scope: !449, file: !450, line: 334, type: !511, scopeLine: 334, flags: DIFlagPublic | DIFlagPrototyped, spFlags: DISPFlagOptimized)
!511 = !DISubroutineType(types: !512)
!512 = !{!508, !484}
!513 = !DISubprogram(name: "back", linkageName: "_ZNKSt3__117basic_string_viewIcNS_11char_traitsIcEEE4backEv", scope: !449, file: !450, line: 340, type: !511, scopeLine: 340, flags: DIFlagPublic | DIFlagPrototyped, spFlags: DISPFlagOptimized)
!514 = !DISubprogram(name: "data", linkageName: "_ZNKSt3__117basic_string_viewIcNS_11char_traitsIcEEE4dataEv", scope: !449, file: !450, line: 346, type: !515, scopeLine: 346, flags: DIFlagPublic | DIFlagPrototyped, spFlags: DISPFlagOptimized)
!515 = !DISubroutineType(types: !516)
!516 = !{!483, !484}
!517 = !DISubprogram(name: "remove_prefix", linkageName: "_ZNSt3__117basic_string_viewIcNS_11char_traitsIcEEE13remove_prefixEm", scope: !449, file: !450, line: 350, type: !518, scopeLine: 350, flags: DIFlagPublic | DIFlagPrototyped, spFlags: DISPFlagOptimized)
!518 = !DISubroutineType(types: !519)
!519 = !{null, !463, !454}
!520 = !DISubprogram(name: "remove_suffix", linkageName: "_ZNSt3__117basic_string_viewIcNS_11char_traitsIcEEE13remove_suffixEm", scope: !449, file: !450, line: 358, type: !518, scopeLine: 358, flags: DIFlagPublic | DIFlagPrototyped, spFlags: DISPFlagOptimized)
!521 = !DISubprogram(name: "swap", linkageName: "_ZNSt3__117basic_string_viewIcNS_11char_traitsIcEEE4swapERS3_", scope: !449, file: !450, line: 365, type: !522, scopeLine: 365, flags: DIFlagPublic | DIFlagPrototyped, spFlags: DISPFlagOptimized)
!522 = !DISubroutineType(types: !523)
!523 = !{null, !463, !472}
!524 = !DISubprogram(name: "copy", linkageName: "_ZNKSt3__117basic_string_viewIcNS_11char_traitsIcEEE4copyEPcmm", scope: !449, file: !450, line: 377, type: !525, scopeLine: 377, flags: DIFlagPublic | DIFlagPrototyped, spFlags: DISPFlagOptimized)
!525 = !DISubroutineType(types: !526)
!526 = !{!527, !484, !205, !454, !454}
!527 = !DIDerivedType(tag: DW_TAG_typedef, name: "size_type", scope: !449, file: !450, line: 244, baseType: !79)
!528 = !DISubprogram(name: "substr", linkageName: "_ZNKSt3__117basic_string_viewIcNS_11char_traitsIcEEE6substrEmm", scope: !449, file: !450, line: 387, type: !529, scopeLine: 387, flags: DIFlagPublic | DIFlagPrototyped, spFlags: DISPFlagOptimized)
!529 = !DISubroutineType(types: !530)
!530 = !{!449, !484, !454, !454}
!531 = !DISubprogram(name: "compare", linkageName: "_ZNKSt3__117basic_string_viewIcNS_11char_traitsIcEEE7compareES3_", scope: !449, file: !450, line: 394, type: !532, scopeLine: 394, flags: DIFlagPublic | DIFlagPrototyped, spFlags: DISPFlagOptimized)
!532 = !DISubroutineType(types: !533)
!533 = !{!21, !484, !449}
!534 = !DISubprogram(name: "compare", linkageName: "_ZNKSt3__117basic_string_viewIcNS_11char_traitsIcEEE7compareEmmS3_", scope: !449, file: !450, line: 404, type: !535, scopeLine: 404, flags: DIFlagPublic | DIFlagPrototyped, spFlags: DISPFlagOptimized)
!535 = !DISubroutineType(types: !536)
!536 = !{!21, !484, !454, !454, !449}
!537 = !DISubprogram(name: "compare", linkageName: "_ZNKSt3__117basic_string_viewIcNS_11char_traitsIcEEE7compareEmmS3_mm", scope: !449, file: !450, line: 410, type: !538, scopeLine: 410, flags: DIFlagPublic | DIFlagPrototyped, spFlags: DISPFlagOptimized)
!538 = !DISubroutineType(types: !539)
!539 = !{!21, !484, !454, !454, !449, !454, !454}
!540 = !DISubprogram(name: "compare", linkageName: "_ZNKSt3__117basic_string_viewIcNS_11char_traitsIcEEE7compareEPKc", scope: !449, file: !450, line: 417, type: !541, scopeLine: 417, flags: DIFlagPublic | DIFlagPrototyped, spFlags: DISPFlagOptimized)
!541 = !DISubroutineType(types: !542)
!542 = !{!21, !484, !148}
!543 = !DISubprogram(name: "compare", linkageName: "_ZNKSt3__117basic_string_viewIcNS_11char_traitsIcEEE7compareEmmPKc", scope: !449, file: !450, line: 423, type: !544, scopeLine: 423, flags: DIFlagPublic | DIFlagPrototyped, spFlags: DISPFlagOptimized)
!544 = !DISubroutineType(types: !545)
!545 = !{!21, !484, !454, !454, !148}
!546 = !DISubprogram(name: "compare", linkageName: "_ZNKSt3__117basic_string_viewIcNS_11char_traitsIcEEE7compareEmmPKcm", scope: !449, file: !450, line: 429, type: !547, scopeLine: 429, flags: DIFlagPublic | DIFlagPrototyped, spFlags: DISPFlagOptimized)
!547 = !DISubroutineType(types: !548)
!548 = !{!21, !484, !454, !454, !148, !454}
!549 = !DISubprogram(name: "find", linkageName: "_ZNKSt3__117basic_string_viewIcNS_11char_traitsIcEEE4findES3_m", scope: !449, file: !450, line: 436, type: !550, scopeLine: 436, flags: DIFlagPublic | DIFlagPrototyped, spFlags: DISPFlagOptimized)
!550 = !DISubroutineType(types: !551)
!551 = !{!527, !484, !449, !454}
!552 = !DISubprogram(name: "find", linkageName: "_ZNKSt3__117basic_string_viewIcNS_11char_traitsIcEEE4findEcm", scope: !449, file: !450, line: 444, type: !553, scopeLine: 444, flags: DIFlagPublic | DIFlagPrototyped, spFlags: DISPFlagOptimized)
!553 = !DISubroutineType(types: !554)
!554 = !{!527, !484, !150, !454}
!555 = !DISubprogram(name: "find", linkageName: "_ZNKSt3__117basic_string_viewIcNS_11char_traitsIcEEE4findEPKcmm", scope: !449, file: !450, line: 451, type: !556, scopeLine: 451, flags: DIFlagPublic | DIFlagPrototyped, spFlags: DISPFlagOptimized)
!556 = !DISubroutineType(types: !557)
!557 = !{!527, !484, !148, !454, !454}
!558 = !DISubprogram(name: "find", linkageName: "_ZNKSt3__117basic_string_viewIcNS_11char_traitsIcEEE4findEPKcm", scope: !449, file: !450, line: 459, type: !559, scopeLine: 459, flags: DIFlagPublic | DIFlagPrototyped, spFlags: DISPFlagOptimized)
!559 = !DISubroutineType(types: !560)
!560 = !{!527, !484, !148, !454}
!561 = !DISubprogram(name: "rfind", linkageName: "_ZNKSt3__117basic_string_viewIcNS_11char_traitsIcEEE5rfindES3_m", scope: !449, file: !450, line: 468, type: !550, scopeLine: 468, flags: DIFlagPublic | DIFlagPrototyped, spFlags: DISPFlagOptimized)
!562 = !DISubprogram(name: "rfind", linkageName: "_ZNKSt3__117basic_string_viewIcNS_11char_traitsIcEEE5rfindEcm", scope: !449, file: !450, line: 476, type: !553, scopeLine: 476, flags: DIFlagPublic | DIFlagPrototyped, spFlags: DISPFlagOptimized)
!563 = !DISubprogram(name: "rfind", linkageName: "_ZNKSt3__117basic_string_viewIcNS_11char_traitsIcEEE5rfindEPKcmm", scope: !449, file: !450, line: 483, type: !556, scopeLine: 483, flags: DIFlagPublic | DIFlagPrototyped, spFlags: DISPFlagOptimized)
!564 = !DISubprogram(name: "rfind", linkageName: "_ZNKSt3__117basic_string_viewIcNS_11char_traitsIcEEE5rfindEPKcm", scope: !449, file: !450, line: 491, type: !559, scopeLine: 491, flags: DIFlagPublic | DIFlagPrototyped, spFlags: DISPFlagOptimized)
!565 = !DISubprogram(name: "find_first_of", linkageName: "_ZNKSt3__117basic_string_viewIcNS_11char_traitsIcEEE13find_first_ofES3_m", scope: !449, file: !450, line: 500, type: !550, scopeLine: 500, flags: DIFlagPublic | DIFlagPrototyped, spFlags: DISPFlagOptimized)
!566 = !DISubprogram(name: "find_first_of", linkageName: "_ZNKSt3__117basic_string_viewIcNS_11char_traitsIcEEE13find_first_ofEcm", scope: !449, file: !450, line: 508, type: !553, scopeLine: 508, flags: DIFlagPublic | DIFlagPrototyped, spFlags: DISPFlagOptimized)
!567 = !DISubprogram(name: "find_first_of", linkageName: "_ZNKSt3__117basic_string_viewIcNS_11char_traitsIcEEE13find_first_ofEPKcmm", scope: !449, file: !450, line: 512, type: !556, scopeLine: 512, flags: DIFlagPublic | DIFlagPrototyped, spFlags: DISPFlagOptimized)
!568 = !DISubprogram(name: "find_first_of", linkageName: "_ZNKSt3__117basic_string_viewIcNS_11char_traitsIcEEE13find_first_ofEPKcm", scope: !449, file: !450, line: 520, type: !559, scopeLine: 520, flags: DIFlagPublic | DIFlagPrototyped, spFlags: DISPFlagOptimized)
!569 = !DISubprogram(name: "find_last_of", linkageName: "_ZNKSt3__117basic_string_viewIcNS_11char_traitsIcEEE12find_last_ofES3_m", scope: !449, file: !450, line: 529, type: !550, scopeLine: 529, flags: DIFlagPublic | DIFlagPrototyped, spFlags: DISPFlagOptimized)
!570 = !DISubprogram(name: "find_last_of", linkageName: "_ZNKSt3__117basic_string_viewIcNS_11char_traitsIcEEE12find_last_ofEcm", scope: !449, file: !450, line: 537, type: !553, scopeLine: 537, flags: DIFlagPublic | DIFlagPrototyped, spFlags: DISPFlagOptimized)
!571 = !DISubprogram(name: "find_last_of", linkageName: "_ZNKSt3__117basic_string_viewIcNS_11char_traitsIcEEE12find_last_ofEPKcmm", scope: !449, file: !450, line: 541, type: !556, scopeLine: 541, flags: DIFlagPublic | DIFlagPrototyped, spFlags: DISPFlagOptimized)
!572 = !DISubprogram(name: "find_last_of", linkageName: "_ZNKSt3__117basic_string_viewIcNS_11char_traitsIcEEE12find_last_ofEPKcm", scope: !449, file: !450, line: 549, type: !559, scopeLine: 549, flags: DIFlagPublic | DIFlagPrototyped, spFlags: DISPFlagOptimized)
!573 = !DISubprogram(name: "find_first_not_of", linkageName: "_ZNKSt3__117basic_string_viewIcNS_11char_traitsIcEEE17find_first_not_ofES3_m", scope: !449, file: !450, line: 558, type: !550, scopeLine: 558, flags: DIFlagPublic | DIFlagPrototyped, spFlags: DISPFlagOptimized)
!574 = !DISubprogram(name: "find_first_not_of", linkageName: "_ZNKSt3__117basic_string_viewIcNS_11char_traitsIcEEE17find_first_not_ofEcm", scope: !449, file: !450, line: 566, type: !553, scopeLine: 566, flags: DIFlagPublic | DIFlagPrototyped, spFlags: DISPFlagOptimized)
!575 = !DISubprogram(name: "find_first_not_of", linkageName: "_ZNKSt3__117basic_string_viewIcNS_11char_traitsIcEEE17find_first_not_ofEPKcmm", scope: !449, file: !450, line: 573, type: !556, scopeLine: 573, flags: DIFlagPublic | DIFlagPrototyped, spFlags: DISPFlagOptimized)
!576 = !DISubprogram(name: "find_first_not_of", linkageName: "_ZNKSt3__117basic_string_viewIcNS_11char_traitsIcEEE17find_first_not_ofEPKcm", scope: !449, file: !450, line: 581, type: !559, scopeLine: 581, flags: DIFlagPublic | DIFlagPrototyped, spFlags: DISPFlagOptimized)
!577 = !DISubprogram(name: "find_last_not_of", linkageName: "_ZNKSt3__117basic_string_viewIcNS_11char_traitsIcEEE16find_last_not_ofES3_m", scope: !449, file: !450, line: 590, type: !550, scopeLine: 590, flags: DIFlagPublic | DIFlagPrototyped, spFlags: DISPFlagOptimized)
!578 = !DISubprogram(name: "find_last_not_of", linkageName: "_ZNKSt3__117basic_string_viewIcNS_11char_traitsIcEEE16find_last_not_ofEcm", scope: !449, file: !450, line: 598, type: !553, scopeLine: 598, flags: DIFlagPublic | DIFlagPrototyped, spFlags: DISPFlagOptimized)
!579 = !DISubprogram(name: "find_last_not_of", linkageName: "_ZNKSt3__117basic_string_viewIcNS_11char_traitsIcEEE16find_last_not_ofEPKcmm", scope: !449, file: !450, line: 605, type: !556, scopeLine: 605, flags: DIFlagPublic | DIFlagPrototyped, spFlags: DISPFlagOptimized)
!580 = !DISubprogram(name: "find_last_not_of", linkageName: "_ZNKSt3__117basic_string_viewIcNS_11char_traitsIcEEE16find_last_not_ofEPKcm", scope: !449, file: !450, line: 613, type: !559, scopeLine: 613, flags: DIFlagPublic | DIFlagPrototyped, spFlags: DISPFlagOptimized)
!581 = !{!582, !583}
!582 = !DITemplateTypeParameter(name: "_CharT", type: !150)
!583 = !DITemplateTypeParameter(name: "_Traits", type: !584)
!584 = distinct !DICompositeType(tag: DW_TAG_structure_type, name: "char_traits<char>", scope: !13, file: !585, line: 320, size: 8, flags: DIFlagTypePassByValue, elements: !586, templateParams: !632, identifier: "_ZTSNSt3__111char_traitsIcEE")
!585 = !DIFile(filename: "LLVM/llvm/build-release-clang-lldb-13.0.0/bin/../include/c++/v1/__string", directory: "/Users/jryans/Projects")
!586 = !{!587, !594, !597, !598, !602, !605, !608, !612, !613, !616, !620, !623, !626, !629}
!587 = !DISubprogram(name: "assign", linkageName: "_ZNSt3__111char_traitsIcE6assignERcRKc", scope: !584, file: !585, line: 329, type: !588, scopeLine: 329, flags: DIFlagPrototyped | DIFlagStaticMember, spFlags: DISPFlagOptimized)
!588 = !DISubroutineType(types: !589)
!589 = !{null, !590, !592}
!590 = !DIDerivedType(tag: DW_TAG_reference_type, baseType: !591, size: 64)
!591 = !DIDerivedType(tag: DW_TAG_typedef, name: "char_type", scope: !584, file: !585, line: 322, baseType: !150)
!592 = !DIDerivedType(tag: DW_TAG_reference_type, baseType: !593, size: 64)
!593 = !DIDerivedType(tag: DW_TAG_const_type, baseType: !591)
!594 = !DISubprogram(name: "eq", linkageName: "_ZNSt3__111char_traitsIcE2eqEcc", scope: !584, file: !585, line: 330, type: !595, scopeLine: 330, flags: DIFlagPrototyped | DIFlagStaticMember, spFlags: DISPFlagOptimized)
!595 = !DISubroutineType(types: !596)
!596 = !{!172, !591, !591}
!597 = !DISubprogram(name: "lt", linkageName: "_ZNSt3__111char_traitsIcE2ltEcc", scope: !584, file: !585, line: 332, type: !595, scopeLine: 332, flags: DIFlagPrototyped | DIFlagStaticMember, spFlags: DISPFlagOptimized)
!598 = !DISubprogram(name: "compare", linkageName: "_ZNSt3__111char_traitsIcE7compareEPKcS3_m", scope: !584, file: !585, line: 336, type: !599, scopeLine: 336, flags: DIFlagPrototyped | DIFlagStaticMember, spFlags: DISPFlagOptimized)
!599 = !DISubroutineType(types: !600)
!600 = !{!21, !601, !601, !79}
!601 = !DIDerivedType(tag: DW_TAG_pointer_type, baseType: !593, size: 64)
!602 = !DISubprogram(name: "length", linkageName: "_ZNSt3__111char_traitsIcE6lengthEPKc", scope: !584, file: !585, line: 338, type: !603, scopeLine: 338, flags: DIFlagPrototyped | DIFlagStaticMember, spFlags: DISPFlagOptimized)
!603 = !DISubroutineType(types: !604)
!604 = !{!79, !601}
!605 = !DISubprogram(name: "find", linkageName: "_ZNSt3__111char_traitsIcE4findEPKcmRS2_", scope: !584, file: !585, line: 340, type: !606, scopeLine: 340, flags: DIFlagPrototyped | DIFlagStaticMember, spFlags: DISPFlagOptimized)
!606 = !DISubroutineType(types: !607)
!607 = !{!601, !601, !79, !592}
!608 = !DISubprogram(name: "move", linkageName: "_ZNSt3__111char_traitsIcE4moveEPcPKcm", scope: !584, file: !585, line: 342, type: !609, scopeLine: 342, flags: DIFlagPrototyped | DIFlagStaticMember, spFlags: DISPFlagOptimized)
!609 = !DISubroutineType(types: !610)
!610 = !{!611, !611, !601, !79}
!611 = !DIDerivedType(tag: DW_TAG_pointer_type, baseType: !591, size: 64)
!612 = !DISubprogram(name: "copy", linkageName: "_ZNSt3__111char_traitsIcE4copyEPcPKcm", scope: !584, file: !585, line: 349, type: !609, scopeLine: 349, flags: DIFlagPrototyped | DIFlagStaticMember, spFlags: DISPFlagOptimized)
!613 = !DISubprogram(name: "assign", linkageName: "_ZNSt3__111char_traitsIcE6assignEPcmc", scope: !584, file: !585, line: 357, type: !614, scopeLine: 357, flags: DIFlagPrototyped | DIFlagStaticMember, spFlags: DISPFlagOptimized)
!614 = !DISubroutineType(types: !615)
!615 = !{!611, !611, !79, !591}
!616 = !DISubprogram(name: "not_eof", linkageName: "_ZNSt3__111char_traitsIcE7not_eofEi", scope: !584, file: !585, line: 364, type: !617, scopeLine: 364, flags: DIFlagPrototyped | DIFlagStaticMember, spFlags: DISPFlagOptimized)
!617 = !DISubroutineType(types: !618)
!618 = !{!619, !619}
!619 = !DIDerivedType(tag: DW_TAG_typedef, name: "int_type", scope: !584, file: !585, line: 323, baseType: !21)
!620 = !DISubprogram(name: "to_char_type", linkageName: "_ZNSt3__111char_traitsIcE12to_char_typeEi", scope: !584, file: !585, line: 366, type: !621, scopeLine: 366, flags: DIFlagPrototyped | DIFlagStaticMember, spFlags: DISPFlagOptimized)
!621 = !DISubroutineType(types: !622)
!622 = !{!591, !619}
!623 = !DISubprogram(name: "to_int_type", linkageName: "_ZNSt3__111char_traitsIcE11to_int_typeEc", scope: !584, file: !585, line: 368, type: !624, scopeLine: 368, flags: DIFlagPrototyped | DIFlagStaticMember, spFlags: DISPFlagOptimized)
!624 = !DISubroutineType(types: !625)
!625 = !{!619, !591}
!626 = !DISubprogram(name: "eq_int_type", linkageName: "_ZNSt3__111char_traitsIcE11eq_int_typeEii", scope: !584, file: !585, line: 370, type: !627, scopeLine: 370, flags: DIFlagPrototyped | DIFlagStaticMember, spFlags: DISPFlagOptimized)
!627 = !DISubroutineType(types: !628)
!628 = !{!172, !619, !619}
!629 = !DISubprogram(name: "eof", linkageName: "_ZNSt3__111char_traitsIcE3eofEv", scope: !584, file: !585, line: 372, type: !630, scopeLine: 372, flags: DIFlagPrototyped | DIFlagStaticMember, spFlags: DISPFlagOptimized)
!630 = !DISubroutineType(types: !631)
!631 = !{!619}
!632 = !{!582}
!633 = !DIDerivedType(tag: DW_TAG_pointer_type, baseType: !389, size: 64, flags: DIFlagArtificial | DIFlagObjectPointer)
!634 = !DISubprogram(name: "operator=", linkageName: "_ZNSt3__112basic_stringIcNS_11char_traitsIcEENS_9allocatorIcEEEaSERKS5_", scope: !158, file: !159, line: 902, type: !635, scopeLine: 902, flags: DIFlagPublic | DIFlagPrototyped, spFlags: DISPFlagOptimized)
!635 = !DISubroutineType(types: !636)
!636 = !{!637, !378, !388}
!637 = !DIDerivedType(tag: DW_TAG_reference_type, baseType: !158, size: 64)
!638 = !DISubprogram(name: "operator=", linkageName: "_ZNSt3__112basic_stringIcNS_11char_traitsIcEENS_9allocatorIcEEEaSEOS5_", scope: !158, file: !159, line: 910, type: !639, scopeLine: 910, flags: DIFlagPublic | DIFlagPrototyped, spFlags: DISPFlagOptimized)
!639 = !DISubroutineType(types: !640)
!640 = !{!637, !378, !396}
!641 = !DISubprogram(name: "operator=", linkageName: "_ZNSt3__112basic_stringIcNS_11char_traitsIcEENS_9allocatorIcEEEaSESt16initializer_listIcE", scope: !158, file: !159, line: 913, type: !642, scopeLine: 913, flags: DIFlagPublic | DIFlagPrototyped, spFlags: DISPFlagOptimized)
!642 = !DISubroutineType(types: !643)
!643 = !{!637, !378, !418}
!644 = !DISubprogram(name: "operator=", linkageName: "_ZNSt3__112basic_stringIcNS_11char_traitsIcEENS_9allocatorIcEEEaSEPKc", scope: !158, file: !159, line: 915, type: !645, scopeLine: 915, flags: DIFlagPublic | DIFlagPrototyped, spFlags: DISPFlagOptimized)
!645 = !DISubroutineType(types: !646)
!646 = !{!637, !378, !647}
!647 = !DIDerivedType(tag: DW_TAG_pointer_type, baseType: !648, size: 64)
!648 = !DIDerivedType(tag: DW_TAG_const_type, baseType: !274)
!649 = !DISubprogram(name: "operator=", linkageName: "_ZNSt3__112basic_stringIcNS_11char_traitsIcEENS_9allocatorIcEEEaSEc", scope: !158, file: !159, line: 919, type: !650, scopeLine: 919, flags: DIFlagPublic | DIFlagPrototyped, spFlags: DISPFlagOptimized)
!650 = !DISubroutineType(types: !651)
!651 = !{!637, !378, !274}
!652 = !DISubprogram(name: "begin", linkageName: "_ZNSt3__112basic_stringIcNS_11char_traitsIcEENS_9allocatorIcEEE5beginEv", scope: !158, file: !159, line: 936, type: !653, scopeLine: 936, flags: DIFlagPublic | DIFlagPrototyped, spFlags: DISPFlagOptimized)
!653 = !DISubroutineType(types: !654)
!654 = !{!655, !378}
!655 = !DIDerivedType(tag: DW_TAG_typedef, name: "iterator", scope: !158, file: !159, line: 715, baseType: !656)
!656 = !DICompositeType(tag: DW_TAG_class_type, name: "__wrap_iter<char *>", scope: !13, file: !657, line: 29, flags: DIFlagFwdDecl | DIFlagNonTrivial, identifier: "_ZTSNSt3__111__wrap_iterIPcEE")
!657 = !DIFile(filename: "LLVM/llvm/build-release-clang-lldb-13.0.0/bin/../include/c++/v1/__iterator/wrap_iter.h", directory: "/Users/jryans/Projects")
!658 = !DISubprogram(name: "begin", linkageName: "_ZNKSt3__112basic_stringIcNS_11char_traitsIcEENS_9allocatorIcEEE5beginEv", scope: !158, file: !159, line: 939, type: !659, scopeLine: 939, flags: DIFlagPublic | DIFlagPrototyped, spFlags: DISPFlagOptimized)
!659 = !DISubroutineType(types: !660)
!660 = !{!661, !633}
!661 = !DIDerivedType(tag: DW_TAG_typedef, name: "const_iterator", scope: !158, file: !159, line: 716, baseType: !662)
!662 = !DICompositeType(tag: DW_TAG_class_type, name: "__wrap_iter<const char *>", scope: !13, file: !657, line: 29, flags: DIFlagFwdDecl | DIFlagNonTrivial, identifier: "_ZTSNSt3__111__wrap_iterIPKcEE")
!663 = !DISubprogram(name: "end", linkageName: "_ZNSt3__112basic_stringIcNS_11char_traitsIcEENS_9allocatorIcEEE3endEv", scope: !158, file: !159, line: 942, type: !653, scopeLine: 942, flags: DIFlagPublic | DIFlagPrototyped, spFlags: DISPFlagOptimized)
!664 = !DISubprogram(name: "end", linkageName: "_ZNKSt3__112basic_stringIcNS_11char_traitsIcEENS_9allocatorIcEEE3endEv", scope: !158, file: !159, line: 945, type: !659, scopeLine: 945, flags: DIFlagPublic | DIFlagPrototyped, spFlags: DISPFlagOptimized)
!665 = !DISubprogram(name: "rbegin", linkageName: "_ZNSt3__112basic_stringIcNS_11char_traitsIcEENS_9allocatorIcEEE6rbeginEv", scope: !158, file: !159, line: 949, type: !666, scopeLine: 949, flags: DIFlagPublic | DIFlagPrototyped, spFlags: DISPFlagOptimized)
!666 = !DISubroutineType(types: !667)
!667 = !{!668, !378}
!668 = !DIDerivedType(tag: DW_TAG_typedef, name: "reverse_iterator", scope: !158, file: !159, line: 717, baseType: !669)
!669 = !DICompositeType(tag: DW_TAG_class_type, name: "reverse_iterator<std::__1::__wrap_iter<char *> >", scope: !13, file: !493, line: 37, flags: DIFlagFwdDecl | DIFlagNonTrivial, identifier: "_ZTSNSt3__116reverse_iteratorINS_11__wrap_iterIPcEEEE")
!670 = !DISubprogram(name: "rbegin", linkageName: "_ZNKSt3__112basic_stringIcNS_11char_traitsIcEENS_9allocatorIcEEE6rbeginEv", scope: !158, file: !159, line: 952, type: !671, scopeLine: 952, flags: DIFlagPublic | DIFlagPrototyped, spFlags: DISPFlagOptimized)
!671 = !DISubroutineType(types: !672)
!672 = !{!673, !633}
!673 = !DIDerivedType(tag: DW_TAG_typedef, name: "const_reverse_iterator", scope: !158, file: !159, line: 718, baseType: !674)
!674 = !DICompositeType(tag: DW_TAG_class_type, name: "reverse_iterator<std::__1::__wrap_iter<const char *> >", scope: !13, file: !493, line: 37, flags: DIFlagFwdDecl | DIFlagNonTrivial, identifier: "_ZTSNSt3__116reverse_iteratorINS_11__wrap_iterIPKcEEEE")
!675 = !DISubprogram(name: "rend", linkageName: "_ZNSt3__112basic_stringIcNS_11char_traitsIcEENS_9allocatorIcEEE4rendEv", scope: !158, file: !159, line: 955, type: !666, scopeLine: 955, flags: DIFlagPublic | DIFlagPrototyped, spFlags: DISPFlagOptimized)
!676 = !DISubprogram(name: "rend", linkageName: "_ZNKSt3__112basic_stringIcNS_11char_traitsIcEENS_9allocatorIcEEE4rendEv", scope: !158, file: !159, line: 958, type: !671, scopeLine: 958, flags: DIFlagPublic | DIFlagPrototyped, spFlags: DISPFlagOptimized)
!677 = !DISubprogram(name: "cbegin", linkageName: "_ZNKSt3__112basic_stringIcNS_11char_traitsIcEENS_9allocatorIcEEE6cbeginEv", scope: !158, file: !159, line: 962, type: !659, scopeLine: 962, flags: DIFlagPublic | DIFlagPrototyped, spFlags: DISPFlagOptimized)
!678 = !DISubprogram(name: "cend", linkageName: "_ZNKSt3__112basic_stringIcNS_11char_traitsIcEENS_9allocatorIcEEE4cendEv", scope: !158, file: !159, line: 965, type: !659, scopeLine: 965, flags: DIFlagPublic | DIFlagPrototyped, spFlags: DISPFlagOptimized)
!679 = !DISubprogram(name: "crbegin", linkageName: "_ZNKSt3__112basic_stringIcNS_11char_traitsIcEENS_9allocatorIcEEE7crbeginEv", scope: !158, file: !159, line: 968, type: !671, scopeLine: 968, flags: DIFlagPublic | DIFlagPrototyped, spFlags: DISPFlagOptimized)
!680 = !DISubprogram(name: "crend", linkageName: "_ZNKSt3__112basic_stringIcNS_11char_traitsIcEENS_9allocatorIcEEE5crendEv", scope: !158, file: !159, line: 971, type: !671, scopeLine: 971, flags: DIFlagPublic | DIFlagPrototyped, spFlags: DISPFlagOptimized)
!681 = !DISubprogram(name: "size", linkageName: "_ZNKSt3__112basic_stringIcNS_11char_traitsIcEENS_9allocatorIcEEE4sizeEv", scope: !158, file: !159, line: 974, type: !682, scopeLine: 974, flags: DIFlagPublic | DIFlagPrototyped, spFlags: DISPFlagOptimized)
!682 = !DISubroutineType(types: !683)
!683 = !{!175, !633}
!684 = !DISubprogram(name: "length", linkageName: "_ZNKSt3__112basic_stringIcNS_11char_traitsIcEENS_9allocatorIcEEE6lengthEv", scope: !158, file: !159, line: 976, type: !682, scopeLine: 976, flags: DIFlagPublic | DIFlagPrototyped, spFlags: DISPFlagOptimized)
!685 = !DISubprogram(name: "max_size", linkageName: "_ZNKSt3__112basic_stringIcNS_11char_traitsIcEENS_9allocatorIcEEE8max_sizeEv", scope: !158, file: !159, line: 977, type: !682, scopeLine: 977, flags: DIFlagPublic | DIFlagPrototyped, spFlags: DISPFlagOptimized)
!686 = !DISubprogram(name: "capacity", linkageName: "_ZNKSt3__112basic_stringIcNS_11char_traitsIcEENS_9allocatorIcEEE8capacityEv", scope: !158, file: !159, line: 978, type: !682, scopeLine: 978, flags: DIFlagPublic | DIFlagPrototyped, spFlags: DISPFlagOptimized)
!687 = !DISubprogram(name: "resize", linkageName: "_ZNSt3__112basic_stringIcNS_11char_traitsIcEENS_9allocatorIcEEE6resizeEmc", scope: !158, file: !159, line: 982, type: !688, scopeLine: 982, flags: DIFlagPublic | DIFlagPrototyped, spFlags: DISPFlagOptimized)
!688 = !DISubroutineType(types: !689)
!689 = !{null, !378, !175, !274}
!690 = !DISubprogram(name: "resize", linkageName: "_ZNSt3__112basic_stringIcNS_11char_traitsIcEENS_9allocatorIcEEE6resizeEm", scope: !158, file: !159, line: 983, type: !691, scopeLine: 983, flags: DIFlagPublic | DIFlagPrototyped, spFlags: DISPFlagOptimized)
!691 = !DISubroutineType(types: !692)
!692 = !{null, !378, !175}
!693 = !DISubprogram(name: "reserve", linkageName: "_ZNSt3__112basic_stringIcNS_11char_traitsIcEENS_9allocatorIcEEE7reserveEm", scope: !158, file: !159, line: 985, type: !691, scopeLine: 985, flags: DIFlagPublic | DIFlagPrototyped, spFlags: DISPFlagOptimized)
!694 = !DISubprogram(name: "__resize_default_init", linkageName: "_ZNSt3__112basic_stringIcNS_11char_traitsIcEENS_9allocatorIcEEE21__resize_default_initEm", scope: !158, file: !159, line: 986, type: !691, scopeLine: 986, flags: DIFlagPublic | DIFlagPrototyped, spFlags: DISPFlagOptimized)
!695 = !DISubprogram(name: "reserve", linkageName: "_ZNSt3__112basic_stringIcNS_11char_traitsIcEENS_9allocatorIcEEE7reserveEv", scope: !158, file: !159, line: 989, type: !376, scopeLine: 989, flags: DIFlagPublic | DIFlagPrototyped, spFlags: DISPFlagOptimized)
!696 = !DISubprogram(name: "shrink_to_fit", linkageName: "_ZNSt3__112basic_stringIcNS_11char_traitsIcEENS_9allocatorIcEEE13shrink_to_fitEv", scope: !158, file: !159, line: 991, type: !376, scopeLine: 991, flags: DIFlagPublic | DIFlagPrototyped, spFlags: DISPFlagOptimized)
!697 = !DISubprogram(name: "clear", linkageName: "_ZNSt3__112basic_stringIcNS_11char_traitsIcEENS_9allocatorIcEEE5clearEv", scope: !158, file: !159, line: 993, type: !376, scopeLine: 993, flags: DIFlagPublic | DIFlagPrototyped, spFlags: DISPFlagOptimized)
!698 = !DISubprogram(name: "empty", linkageName: "_ZNKSt3__112basic_stringIcNS_11char_traitsIcEENS_9allocatorIcEEE5emptyEv", scope: !158, file: !159, line: 995, type: !699, scopeLine: 995, flags: DIFlagPublic | DIFlagPrototyped, spFlags: DISPFlagOptimized)
!699 = !DISubroutineType(types: !700)
!700 = !{!172, !633}
!701 = !DISubprogram(name: "operator[]", linkageName: "_ZNKSt3__112basic_stringIcNS_11char_traitsIcEENS_9allocatorIcEEEixEm", scope: !158, file: !159, line: 997, type: !702, scopeLine: 997, flags: DIFlagPublic | DIFlagPrototyped, spFlags: DISPFlagOptimized)
!702 = !DISubroutineType(types: !703)
!703 = !{!704, !633, !175}
!704 = !DIDerivedType(tag: DW_TAG_typedef, name: "const_reference", scope: !158, file: !159, line: 703, baseType: !705)
!705 = !DIDerivedType(tag: DW_TAG_reference_type, baseType: !648, size: 64)
!706 = !DISubprogram(name: "operator[]", linkageName: "_ZNSt3__112basic_stringIcNS_11char_traitsIcEENS_9allocatorIcEEEixEm", scope: !158, file: !159, line: 998, type: !707, scopeLine: 998, flags: DIFlagPublic | DIFlagPrototyped, spFlags: DISPFlagOptimized)
!707 = !DISubroutineType(types: !708)
!708 = !{!709, !378, !175}
!709 = !DIDerivedType(tag: DW_TAG_typedef, name: "reference", scope: !158, file: !159, line: 702, baseType: !710)
!710 = !DIDerivedType(tag: DW_TAG_reference_type, baseType: !274, size: 64)
!711 = !DISubprogram(name: "at", linkageName: "_ZNKSt3__112basic_stringIcNS_11char_traitsIcEENS_9allocatorIcEEE2atEm", scope: !158, file: !159, line: 1000, type: !702, scopeLine: 1000, flags: DIFlagPublic | DIFlagPrototyped, spFlags: DISPFlagOptimized)
!712 = !DISubprogram(name: "at", linkageName: "_ZNSt3__112basic_stringIcNS_11char_traitsIcEENS_9allocatorIcEEE2atEm", scope: !158, file: !159, line: 1001, type: !707, scopeLine: 1001, flags: DIFlagPublic | DIFlagPrototyped, spFlags: DISPFlagOptimized)
!713 = !DISubprogram(name: "operator+=", linkageName: "_ZNSt3__112basic_stringIcNS_11char_traitsIcEENS_9allocatorIcEEEpLERKS5_", scope: !158, file: !159, line: 1003, type: !635, scopeLine: 1003, flags: DIFlagPublic | DIFlagPrototyped, spFlags: DISPFlagOptimized)
!714 = !DISubprogram(name: "operator+=", linkageName: "_ZNSt3__112basic_stringIcNS_11char_traitsIcEENS_9allocatorIcEEEpLEPKc", scope: !158, file: !159, line: 1014, type: !645, scopeLine: 1014, flags: DIFlagPublic | DIFlagPrototyped, spFlags: DISPFlagOptimized)
!715 = !DISubprogram(name: "operator+=", linkageName: "_ZNSt3__112basic_stringIcNS_11char_traitsIcEENS_9allocatorIcEEEpLEc", scope: !158, file: !159, line: 1015, type: !650, scopeLine: 1015, flags: DIFlagPublic | DIFlagPrototyped, spFlags: DISPFlagOptimized)
!716 = !DISubprogram(name: "operator+=", linkageName: "_ZNSt3__112basic_stringIcNS_11char_traitsIcEENS_9allocatorIcEEEpLESt16initializer_listIcE", scope: !158, file: !159, line: 1017, type: !642, scopeLine: 1017, flags: DIFlagPublic | DIFlagPrototyped, spFlags: DISPFlagOptimized)
!717 = !DISubprogram(name: "append", linkageName: "_ZNSt3__112basic_stringIcNS_11char_traitsIcEENS_9allocatorIcEEE6appendERKS5_", scope: !158, file: !159, line: 1021, type: !635, scopeLine: 1021, flags: DIFlagPublic | DIFlagPrototyped, spFlags: DISPFlagOptimized)
!718 = !DISubprogram(name: "append", linkageName: "_ZNSt3__112basic_stringIcNS_11char_traitsIcEENS_9allocatorIcEEE6appendERKS5_mm", scope: !158, file: !159, line: 1031, type: !719, scopeLine: 1031, flags: DIFlagPublic | DIFlagPrototyped, spFlags: DISPFlagOptimized)
!719 = !DISubroutineType(types: !720)
!720 = !{!637, !378, !388, !175, !175}
!721 = !DISubprogram(name: "append", linkageName: "_ZNSt3__112basic_stringIcNS_11char_traitsIcEENS_9allocatorIcEEE6appendEPKcm", scope: !158, file: !159, line: 1042, type: !722, scopeLine: 1042, flags: DIFlagPublic | DIFlagPrototyped, spFlags: DISPFlagOptimized)
!722 = !DISubroutineType(types: !723)
!723 = !{!637, !378, !647, !175}
!724 = !DISubprogram(name: "append", linkageName: "_ZNSt3__112basic_stringIcNS_11char_traitsIcEENS_9allocatorIcEEE6appendEPKc", scope: !158, file: !159, line: 1043, type: !645, scopeLine: 1043, flags: DIFlagPublic | DIFlagPrototyped, spFlags: DISPFlagOptimized)
!725 = !DISubprogram(name: "append", linkageName: "_ZNSt3__112basic_stringIcNS_11char_traitsIcEENS_9allocatorIcEEE6appendEmc", scope: !158, file: !159, line: 1044, type: !726, scopeLine: 1044, flags: DIFlagPublic | DIFlagPrototyped, spFlags: DISPFlagOptimized)
!726 = !DISubroutineType(types: !727)
!727 = !{!637, !378, !175, !274}
!728 = !DISubprogram(name: "__append_default_init", linkageName: "_ZNSt3__112basic_stringIcNS_11char_traitsIcEENS_9allocatorIcEEE21__append_default_initEm", scope: !158, file: !159, line: 1047, type: !691, scopeLine: 1047, flags: DIFlagPublic | DIFlagPrototyped, spFlags: DISPFlagOptimized)
!729 = !DISubprogram(name: "append", linkageName: "_ZNSt3__112basic_stringIcNS_11char_traitsIcEENS_9allocatorIcEEE6appendESt16initializer_listIcE", scope: !158, file: !159, line: 1074, type: !642, scopeLine: 1074, flags: DIFlagPublic | DIFlagPrototyped, spFlags: DISPFlagOptimized)
!730 = !DISubprogram(name: "push_back", linkageName: "_ZNSt3__112basic_stringIcNS_11char_traitsIcEENS_9allocatorIcEEE9push_backEc", scope: !158, file: !159, line: 1077, type: !731, scopeLine: 1077, flags: DIFlagPublic | DIFlagPrototyped, spFlags: DISPFlagOptimized)
!731 = !DISubroutineType(types: !732)
!732 = !{null, !378, !274}
!733 = !DISubprogram(name: "pop_back", linkageName: "_ZNSt3__112basic_stringIcNS_11char_traitsIcEENS_9allocatorIcEEE8pop_backEv", scope: !158, file: !159, line: 1079, type: !376, scopeLine: 1079, flags: DIFlagPublic | DIFlagPrototyped, spFlags: DISPFlagOptimized)
!734 = !DISubprogram(name: "front", linkageName: "_ZNSt3__112basic_stringIcNS_11char_traitsIcEENS_9allocatorIcEEE5frontEv", scope: !158, file: !159, line: 1080, type: !735, scopeLine: 1080, flags: DIFlagPublic | DIFlagPrototyped, spFlags: DISPFlagOptimized)
!735 = !DISubroutineType(types: !736)
!736 = !{!709, !378}
!737 = !DISubprogram(name: "front", linkageName: "_ZNKSt3__112basic_stringIcNS_11char_traitsIcEENS_9allocatorIcEEE5frontEv", scope: !158, file: !159, line: 1081, type: !738, scopeLine: 1081, flags: DIFlagPublic | DIFlagPrototyped, spFlags: DISPFlagOptimized)
!738 = !DISubroutineType(types: !739)
!739 = !{!704, !633}
!740 = !DISubprogram(name: "back", linkageName: "_ZNSt3__112basic_stringIcNS_11char_traitsIcEENS_9allocatorIcEEE4backEv", scope: !158, file: !159, line: 1082, type: !735, scopeLine: 1082, flags: DIFlagPublic | DIFlagPrototyped, spFlags: DISPFlagOptimized)
!741 = !DISubprogram(name: "back", linkageName: "_ZNKSt3__112basic_stringIcNS_11char_traitsIcEENS_9allocatorIcEEE4backEv", scope: !158, file: !159, line: 1083, type: !738, scopeLine: 1083, flags: DIFlagPublic | DIFlagPrototyped, spFlags: DISPFlagOptimized)
!742 = !DISubprogram(name: "assign", linkageName: "_ZNSt3__112basic_stringIcNS_11char_traitsIcEENS_9allocatorIcEEE6assignERKS5_", scope: !158, file: !159, line: 1094, type: !635, scopeLine: 1094, flags: DIFlagPublic | DIFlagPrototyped, spFlags: DISPFlagOptimized)
!743 = !DISubprogram(name: "assign", linkageName: "_ZNSt3__112basic_stringIcNS_11char_traitsIcEENS_9allocatorIcEEE6assignEOS5_", scope: !158, file: !159, line: 1097, type: !639, scopeLine: 1097, flags: DIFlagPublic | DIFlagPrototyped, spFlags: DISPFlagOptimized)
!744 = !DISubprogram(name: "assign", linkageName: "_ZNSt3__112basic_stringIcNS_11char_traitsIcEENS_9allocatorIcEEE6assignERKS5_mm", scope: !158, file: !159, line: 1101, type: !719, scopeLine: 1101, flags: DIFlagPublic | DIFlagPrototyped, spFlags: DISPFlagOptimized)
!745 = !DISubprogram(name: "assign", linkageName: "_ZNSt3__112basic_stringIcNS_11char_traitsIcEENS_9allocatorIcEEE6assignEPKcm", scope: !158, file: !159, line: 1111, type: !722, scopeLine: 1111, flags: DIFlagPublic | DIFlagPrototyped, spFlags: DISPFlagOptimized)
!746 = !DISubprogram(name: "assign", linkageName: "_ZNSt3__112basic_stringIcNS_11char_traitsIcEENS_9allocatorIcEEE6assignEPKc", scope: !158, file: !159, line: 1112, type: !645, scopeLine: 1112, flags: DIFlagPublic | DIFlagPrototyped, spFlags: DISPFlagOptimized)
!747 = !DISubprogram(name: "assign", linkageName: "_ZNSt3__112basic_stringIcNS_11char_traitsIcEENS_9allocatorIcEEE6assignEmc", scope: !158, file: !159, line: 1113, type: !726, scopeLine: 1113, flags: DIFlagPublic | DIFlagPrototyped, spFlags: DISPFlagOptimized)
!748 = !DISubprogram(name: "assign", linkageName: "_ZNSt3__112basic_stringIcNS_11char_traitsIcEENS_9allocatorIcEEE6assignESt16initializer_listIcE", scope: !158, file: !159, line: 1132, type: !642, scopeLine: 1132, flags: DIFlagPublic | DIFlagPrototyped, spFlags: DISPFlagOptimized)
!749 = !DISubprogram(name: "insert", linkageName: "_ZNSt3__112basic_stringIcNS_11char_traitsIcEENS_9allocatorIcEEE6insertEmRKS5_", scope: !158, file: !159, line: 1136, type: !750, scopeLine: 1136, flags: DIFlagPublic | DIFlagPrototyped, spFlags: DISPFlagOptimized)
!750 = !DISubroutineType(types: !751)
!751 = !{!637, !378, !175, !388}
!752 = !DISubprogram(name: "insert", linkageName: "_ZNSt3__112basic_stringIcNS_11char_traitsIcEENS_9allocatorIcEEE6insertEmRKS5_mm", scope: !158, file: !159, line: 1156, type: !753, scopeLine: 1156, flags: DIFlagPublic | DIFlagPrototyped, spFlags: DISPFlagOptimized)
!753 = !DISubroutineType(types: !754)
!754 = !{!637, !378, !175, !388, !175, !175}
!755 = !DISubprogram(name: "insert", linkageName: "_ZNSt3__112basic_stringIcNS_11char_traitsIcEENS_9allocatorIcEEE6insertEmPKcm", scope: !158, file: !159, line: 1157, type: !756, scopeLine: 1157, flags: DIFlagPublic | DIFlagPrototyped, spFlags: DISPFlagOptimized)
!756 = !DISubroutineType(types: !757)
!757 = !{!637, !378, !175, !647, !175}
!758 = !DISubprogram(name: "insert", linkageName: "_ZNSt3__112basic_stringIcNS_11char_traitsIcEENS_9allocatorIcEEE6insertEmPKc", scope: !158, file: !159, line: 1158, type: !759, scopeLine: 1158, flags: DIFlagPublic | DIFlagPrototyped, spFlags: DISPFlagOptimized)
!759 = !DISubroutineType(types: !760)
!760 = !{!637, !378, !175, !647}
!761 = !DISubprogram(name: "insert", linkageName: "_ZNSt3__112basic_stringIcNS_11char_traitsIcEENS_9allocatorIcEEE6insertEmmc", scope: !158, file: !159, line: 1159, type: !762, scopeLine: 1159, flags: DIFlagPublic | DIFlagPrototyped, spFlags: DISPFlagOptimized)
!762 = !DISubroutineType(types: !763)
!763 = !{!637, !378, !175, !175, !274}
!764 = !DISubprogram(name: "insert", linkageName: "_ZNSt3__112basic_stringIcNS_11char_traitsIcEENS_9allocatorIcEEE6insertENS_11__wrap_iterIPKcEEc", scope: !158, file: !159, line: 1160, type: !765, scopeLine: 1160, flags: DIFlagPublic | DIFlagPrototyped, spFlags: DISPFlagOptimized)
!765 = !DISubroutineType(types: !766)
!766 = !{!655, !378, !661, !274}
!767 = !DISubprogram(name: "insert", linkageName: "_ZNSt3__112basic_stringIcNS_11char_traitsIcEENS_9allocatorIcEEE6insertENS_11__wrap_iterIPKcEEmc", scope: !158, file: !159, line: 1162, type: !768, scopeLine: 1162, flags: DIFlagPublic | DIFlagPrototyped, spFlags: DISPFlagOptimized)
!768 = !DISubroutineType(types: !769)
!769 = !{!655, !378, !661, !175, !274}
!770 = !DISubprogram(name: "insert", linkageName: "_ZNSt3__112basic_stringIcNS_11char_traitsIcEENS_9allocatorIcEEE6insertENS_11__wrap_iterIPKcEESt16initializer_listIcE", scope: !158, file: !159, line: 1181, type: !771, scopeLine: 1181, flags: DIFlagPublic | DIFlagPrototyped, spFlags: DISPFlagOptimized)
!771 = !DISubroutineType(types: !772)
!772 = !{!655, !378, !661, !418}
!773 = !DISubprogram(name: "erase", linkageName: "_ZNSt3__112basic_stringIcNS_11char_traitsIcEENS_9allocatorIcEEE5eraseEmm", scope: !158, file: !159, line: 1185, type: !774, scopeLine: 1185, flags: DIFlagPublic | DIFlagPrototyped, spFlags: DISPFlagOptimized)
!774 = !DISubroutineType(types: !775)
!775 = !{!637, !378, !175, !175}
!776 = !DISubprogram(name: "erase", linkageName: "_ZNSt3__112basic_stringIcNS_11char_traitsIcEENS_9allocatorIcEEE5eraseENS_11__wrap_iterIPKcEE", scope: !158, file: !159, line: 1187, type: !777, scopeLine: 1187, flags: DIFlagPublic | DIFlagPrototyped, spFlags: DISPFlagOptimized)
!777 = !DISubroutineType(types: !778)
!778 = !{!655, !378, !661}
!779 = !DISubprogram(name: "erase", linkageName: "_ZNSt3__112basic_stringIcNS_11char_traitsIcEENS_9allocatorIcEEE5eraseENS_11__wrap_iterIPKcEES9_", scope: !158, file: !159, line: 1189, type: !780, scopeLine: 1189, flags: DIFlagPublic | DIFlagPrototyped, spFlags: DISPFlagOptimized)
!780 = !DISubroutineType(types: !781)
!781 = !{!655, !378, !661, !661}
!782 = !DISubprogram(name: "replace", linkageName: "_ZNSt3__112basic_stringIcNS_11char_traitsIcEENS_9allocatorIcEEE7replaceEmmRKS5_", scope: !158, file: !159, line: 1192, type: !783, scopeLine: 1192, flags: DIFlagPublic | DIFlagPrototyped, spFlags: DISPFlagOptimized)
!783 = !DISubroutineType(types: !784)
!784 = !{!637, !378, !175, !175, !388}
!785 = !DISubprogram(name: "replace", linkageName: "_ZNSt3__112basic_stringIcNS_11char_traitsIcEENS_9allocatorIcEEE7replaceEmmRKS5_mm", scope: !158, file: !159, line: 1202, type: !786, scopeLine: 1202, flags: DIFlagPublic | DIFlagPrototyped, spFlags: DISPFlagOptimized)
!786 = !DISubroutineType(types: !787)
!787 = !{!637, !378, !175, !175, !388, !175, !175}
!788 = !DISubprogram(name: "replace", linkageName: "_ZNSt3__112basic_stringIcNS_11char_traitsIcEENS_9allocatorIcEEE7replaceEmmPKcm", scope: !158, file: !159, line: 1211, type: !789, scopeLine: 1211, flags: DIFlagPublic | DIFlagPrototyped, spFlags: DISPFlagOptimized)
!789 = !DISubroutineType(types: !790)
!790 = !{!637, !378, !175, !175, !647, !175}
!791 = !DISubprogram(name: "replace", linkageName: "_ZNSt3__112basic_stringIcNS_11char_traitsIcEENS_9allocatorIcEEE7replaceEmmPKc", scope: !158, file: !159, line: 1212, type: !792, scopeLine: 1212, flags: DIFlagPublic | DIFlagPrototyped, spFlags: DISPFlagOptimized)
!792 = !DISubroutineType(types: !793)
!793 = !{!637, !378, !175, !175, !647}
!794 = !DISubprogram(name: "replace", linkageName: "_ZNSt3__112basic_stringIcNS_11char_traitsIcEENS_9allocatorIcEEE7replaceEmmmc", scope: !158, file: !159, line: 1213, type: !795, scopeLine: 1213, flags: DIFlagPublic | DIFlagPrototyped, spFlags: DISPFlagOptimized)
!795 = !DISubroutineType(types: !796)
!796 = !{!637, !378, !175, !175, !175, !274}
!797 = !DISubprogram(name: "replace", linkageName: "_ZNSt3__112basic_stringIcNS_11char_traitsIcEENS_9allocatorIcEEE7replaceENS_11__wrap_iterIPKcEES9_RKS5_", scope: !158, file: !159, line: 1215, type: !798, scopeLine: 1215, flags: DIFlagPublic | DIFlagPrototyped, spFlags: DISPFlagOptimized)
!798 = !DISubroutineType(types: !799)
!799 = !{!637, !378, !661, !661, !388}
!800 = !DISubprogram(name: "replace", linkageName: "_ZNSt3__112basic_stringIcNS_11char_traitsIcEENS_9allocatorIcEEE7replaceENS_11__wrap_iterIPKcEES9_S8_m", scope: !158, file: !159, line: 1227, type: !801, scopeLine: 1227, flags: DIFlagPublic | DIFlagPrototyped, spFlags: DISPFlagOptimized)
!801 = !DISubroutineType(types: !802)
!802 = !{!637, !378, !661, !661, !647, !175}
!803 = !DISubprogram(name: "replace", linkageName: "_ZNSt3__112basic_stringIcNS_11char_traitsIcEENS_9allocatorIcEEE7replaceENS_11__wrap_iterIPKcEES9_S8_", scope: !158, file: !159, line: 1229, type: !804, scopeLine: 1229, flags: DIFlagPublic | DIFlagPrototyped, spFlags: DISPFlagOptimized)
!804 = !DISubroutineType(types: !805)
!805 = !{!637, !378, !661, !661, !647}
!806 = !DISubprogram(name: "replace", linkageName: "_ZNSt3__112basic_stringIcNS_11char_traitsIcEENS_9allocatorIcEEE7replaceENS_11__wrap_iterIPKcEES9_mc", scope: !158, file: !159, line: 1231, type: !807, scopeLine: 1231, flags: DIFlagPublic | DIFlagPrototyped, spFlags: DISPFlagOptimized)
!807 = !DISubroutineType(types: !808)
!808 = !{!637, !378, !661, !661, !175, !274}
!809 = !DISubprogram(name: "replace", linkageName: "_ZNSt3__112basic_stringIcNS_11char_traitsIcEENS_9allocatorIcEEE7replaceENS_11__wrap_iterIPKcEES9_St16initializer_listIcE", scope: !158, file: !159, line: 1242, type: !810, scopeLine: 1242, flags: DIFlagPublic | DIFlagPrototyped, spFlags: DISPFlagOptimized)
!810 = !DISubroutineType(types: !811)
!811 = !{!637, !378, !661, !661, !418}
!812 = !DISubprogram(name: "copy", linkageName: "_ZNKSt3__112basic_stringIcNS_11char_traitsIcEENS_9allocatorIcEEE4copyEPcmm", scope: !158, file: !159, line: 1246, type: !813, scopeLine: 1246, flags: DIFlagPublic | DIFlagPrototyped, spFlags: DISPFlagOptimized)
!813 = !DISubroutineType(types: !814)
!814 = !{!175, !633, !815, !175, !175}
!815 = !DIDerivedType(tag: DW_TAG_pointer_type, baseType: !274, size: 64)
!816 = !DISubprogram(name: "substr", linkageName: "_ZNKSt3__112basic_stringIcNS_11char_traitsIcEENS_9allocatorIcEEE6substrEmm", scope: !158, file: !159, line: 1248, type: !817, scopeLine: 1248, flags: DIFlagPublic | DIFlagPrototyped, spFlags: DISPFlagOptimized)
!817 = !DISubroutineType(types: !818)
!818 = !{!158, !633, !175, !175}
!819 = !DISubprogram(name: "swap", linkageName: "_ZNSt3__112basic_stringIcNS_11char_traitsIcEENS_9allocatorIcEEE4swapERS5_", scope: !158, file: !159, line: 1251, type: !820, scopeLine: 1251, flags: DIFlagPublic | DIFlagPrototyped, spFlags: DISPFlagOptimized)
!820 = !DISubroutineType(types: !821)
!821 = !{null, !378, !637}
!822 = !DISubprogram(name: "c_str", linkageName: "_ZNKSt3__112basic_stringIcNS_11char_traitsIcEENS_9allocatorIcEEE5c_strEv", scope: !158, file: !159, line: 1260, type: !823, scopeLine: 1260, flags: DIFlagPublic | DIFlagPrototyped, spFlags: DISPFlagOptimized)
!823 = !DISubroutineType(types: !824)
!824 = !{!647, !633}
!825 = !DISubprogram(name: "data", linkageName: "_ZNKSt3__112basic_stringIcNS_11char_traitsIcEENS_9allocatorIcEEE4dataEv", scope: !158, file: !159, line: 1262, type: !823, scopeLine: 1262, flags: DIFlagPublic | DIFlagPrototyped, spFlags: DISPFlagOptimized)
!826 = !DISubprogram(name: "get_allocator", linkageName: "_ZNKSt3__112basic_stringIcNS_11char_traitsIcEENS_9allocatorIcEEE13get_allocatorEv", scope: !158, file: !159, line: 1269, type: !827, scopeLine: 1269, flags: DIFlagPublic | DIFlagPrototyped, spFlags: DISPFlagOptimized)
!827 = !DISubroutineType(types: !828)
!828 = !{!384, !633}
!829 = !DISubprogram(name: "find", linkageName: "_ZNKSt3__112basic_stringIcNS_11char_traitsIcEENS_9allocatorIcEEE4findERKS5_m", scope: !158, file: !159, line: 1272, type: !830, scopeLine: 1272, flags: DIFlagPublic | DIFlagPrototyped, spFlags: DISPFlagOptimized)
!830 = !DISubroutineType(types: !831)
!831 = !{!175, !633, !388, !175}
!832 = !DISubprogram(name: "find", linkageName: "_ZNKSt3__112basic_stringIcNS_11char_traitsIcEENS_9allocatorIcEEE4findEPKcmm", scope: !158, file: !159, line: 1282, type: !833, scopeLine: 1282, flags: DIFlagPublic | DIFlagPrototyped, spFlags: DISPFlagOptimized)
!833 = !DISubroutineType(types: !834)
!834 = !{!175, !633, !647, !175, !175}
!835 = !DISubprogram(name: "find", linkageName: "_ZNKSt3__112basic_stringIcNS_11char_traitsIcEENS_9allocatorIcEEE4findEPKcm", scope: !158, file: !159, line: 1284, type: !836, scopeLine: 1284, flags: DIFlagPublic | DIFlagPrototyped, spFlags: DISPFlagOptimized)
!836 = !DISubroutineType(types: !837)
!837 = !{!175, !633, !647, !175}
!838 = !DISubprogram(name: "find", linkageName: "_ZNKSt3__112basic_stringIcNS_11char_traitsIcEENS_9allocatorIcEEE4findEcm", scope: !158, file: !159, line: 1285, type: !839, scopeLine: 1285, flags: DIFlagPublic | DIFlagPrototyped, spFlags: DISPFlagOptimized)
!839 = !DISubroutineType(types: !840)
!840 = !{!175, !633, !274, !175}
!841 = !DISubprogram(name: "rfind", linkageName: "_ZNKSt3__112basic_stringIcNS_11char_traitsIcEENS_9allocatorIcEEE5rfindERKS5_m", scope: !158, file: !159, line: 1288, type: !830, scopeLine: 1288, flags: DIFlagPublic | DIFlagPrototyped, spFlags: DISPFlagOptimized)
!842 = !DISubprogram(name: "rfind", linkageName: "_ZNKSt3__112basic_stringIcNS_11char_traitsIcEENS_9allocatorIcEEE5rfindEPKcmm", scope: !158, file: !159, line: 1298, type: !833, scopeLine: 1298, flags: DIFlagPublic | DIFlagPrototyped, spFlags: DISPFlagOptimized)
!843 = !DISubprogram(name: "rfind", linkageName: "_ZNKSt3__112basic_stringIcNS_11char_traitsIcEENS_9allocatorIcEEE5rfindEPKcm", scope: !158, file: !159, line: 1300, type: !836, scopeLine: 1300, flags: DIFlagPublic | DIFlagPrototyped, spFlags: DISPFlagOptimized)
!844 = !DISubprogram(name: "rfind", linkageName: "_ZNKSt3__112basic_stringIcNS_11char_traitsIcEENS_9allocatorIcEEE5rfindEcm", scope: !158, file: !159, line: 1301, type: !839, scopeLine: 1301, flags: DIFlagPublic | DIFlagPrototyped, spFlags: DISPFlagOptimized)
!845 = !DISubprogram(name: "find_first_of", linkageName: "_ZNKSt3__112basic_stringIcNS_11char_traitsIcEENS_9allocatorIcEEE13find_first_ofERKS5_m", scope: !158, file: !159, line: 1304, type: !830, scopeLine: 1304, flags: DIFlagPublic | DIFlagPrototyped, spFlags: DISPFlagOptimized)
!846 = !DISubprogram(name: "find_first_of", linkageName: "_ZNKSt3__112basic_stringIcNS_11char_traitsIcEENS_9allocatorIcEEE13find_first_ofEPKcmm", scope: !158, file: !159, line: 1314, type: !833, scopeLine: 1314, flags: DIFlagPublic | DIFlagPrototyped, spFlags: DISPFlagOptimized)
!847 = !DISubprogram(name: "find_first_of", linkageName: "_ZNKSt3__112basic_stringIcNS_11char_traitsIcEENS_9allocatorIcEEE13find_first_ofEPKcm", scope: !158, file: !159, line: 1316, type: !836, scopeLine: 1316, flags: DIFlagPublic | DIFlagPrototyped, spFlags: DISPFlagOptimized)
!848 = !DISubprogram(name: "find_first_of", linkageName: "_ZNKSt3__112basic_stringIcNS_11char_traitsIcEENS_9allocatorIcEEE13find_first_ofEcm", scope: !158, file: !159, line: 1318, type: !839, scopeLine: 1318, flags: DIFlagPublic | DIFlagPrototyped, spFlags: DISPFlagOptimized)
!849 = !DISubprogram(name: "find_last_of", linkageName: "_ZNKSt3__112basic_stringIcNS_11char_traitsIcEENS_9allocatorIcEEE12find_last_ofERKS5_m", scope: !158, file: !159, line: 1321, type: !830, scopeLine: 1321, flags: DIFlagPublic | DIFlagPrototyped, spFlags: DISPFlagOptimized)
!850 = !DISubprogram(name: "find_last_of", linkageName: "_ZNKSt3__112basic_stringIcNS_11char_traitsIcEENS_9allocatorIcEEE12find_last_ofEPKcmm", scope: !158, file: !159, line: 1331, type: !833, scopeLine: 1331, flags: DIFlagPublic | DIFlagPrototyped, spFlags: DISPFlagOptimized)
!851 = !DISubprogram(name: "find_last_of", linkageName: "_ZNKSt3__112basic_stringIcNS_11char_traitsIcEENS_9allocatorIcEEE12find_last_ofEPKcm", scope: !158, file: !159, line: 1333, type: !836, scopeLine: 1333, flags: DIFlagPublic | DIFlagPrototyped, spFlags: DISPFlagOptimized)
!852 = !DISubprogram(name: "find_last_of", linkageName: "_ZNKSt3__112basic_stringIcNS_11char_traitsIcEENS_9allocatorIcEEE12find_last_ofEcm", scope: !158, file: !159, line: 1335, type: !839, scopeLine: 1335, flags: DIFlagPublic | DIFlagPrototyped, spFlags: DISPFlagOptimized)
!853 = !DISubprogram(name: "find_first_not_of", linkageName: "_ZNKSt3__112basic_stringIcNS_11char_traitsIcEENS_9allocatorIcEEE17find_first_not_ofERKS5_m", scope: !158, file: !159, line: 1338, type: !830, scopeLine: 1338, flags: DIFlagPublic | DIFlagPrototyped, spFlags: DISPFlagOptimized)
!854 = !DISubprogram(name: "find_first_not_of", linkageName: "_ZNKSt3__112basic_stringIcNS_11char_traitsIcEENS_9allocatorIcEEE17find_first_not_ofEPKcmm", scope: !158, file: !159, line: 1348, type: !833, scopeLine: 1348, flags: DIFlagPublic | DIFlagPrototyped, spFlags: DISPFlagOptimized)
!855 = !DISubprogram(name: "find_first_not_of", linkageName: "_ZNKSt3__112basic_stringIcNS_11char_traitsIcEENS_9allocatorIcEEE17find_first_not_ofEPKcm", scope: !158, file: !159, line: 1350, type: !836, scopeLine: 1350, flags: DIFlagPublic | DIFlagPrototyped, spFlags: DISPFlagOptimized)
!856 = !DISubprogram(name: "find_first_not_of", linkageName: "_ZNKSt3__112basic_stringIcNS_11char_traitsIcEENS_9allocatorIcEEE17find_first_not_ofEcm", scope: !158, file: !159, line: 1352, type: !839, scopeLine: 1352, flags: DIFlagPublic | DIFlagPrototyped, spFlags: DISPFlagOptimized)
!857 = !DISubprogram(name: "find_last_not_of", linkageName: "_ZNKSt3__112basic_stringIcNS_11char_traitsIcEENS_9allocatorIcEEE16find_last_not_ofERKS5_m", scope: !158, file: !159, line: 1355, type: !830, scopeLine: 1355, flags: DIFlagPublic | DIFlagPrototyped, spFlags: DISPFlagOptimized)
!858 = !DISubprogram(name: "find_last_not_of", linkageName: "_ZNKSt3__112basic_stringIcNS_11char_traitsIcEENS_9allocatorIcEEE16find_last_not_ofEPKcmm", scope: !158, file: !159, line: 1365, type: !833, scopeLine: 1365, flags: DIFlagPublic | DIFlagPrototyped, spFlags: DISPFlagOptimized)
!859 = !DISubprogram(name: "find_last_not_of", linkageName: "_ZNKSt3__112basic_stringIcNS_11char_traitsIcEENS_9allocatorIcEEE16find_last_not_ofEPKcm", scope: !158, file: !159, line: 1367, type: !836, scopeLine: 1367, flags: DIFlagPublic | DIFlagPrototyped, spFlags: DISPFlagOptimized)
!860 = !DISubprogram(name: "find_last_not_of", linkageName: "_ZNKSt3__112basic_stringIcNS_11char_traitsIcEENS_9allocatorIcEEE16find_last_not_ofEcm", scope: !158, file: !159, line: 1369, type: !839, scopeLine: 1369, flags: DIFlagPublic | DIFlagPrototyped, spFlags: DISPFlagOptimized)
!861 = !DISubprogram(name: "compare", linkageName: "_ZNKSt3__112basic_stringIcNS_11char_traitsIcEENS_9allocatorIcEEE7compareERKS5_", scope: !158, file: !159, line: 1372, type: !862, scopeLine: 1372, flags: DIFlagPublic | DIFlagPrototyped, spFlags: DISPFlagOptimized)
!862 = !DISubroutineType(types: !863)
!863 = !{!21, !633, !388}
!864 = !DISubprogram(name: "compare", linkageName: "_ZNKSt3__112basic_stringIcNS_11char_traitsIcEENS_9allocatorIcEEE7compareEmmRKS5_", scope: !158, file: !159, line: 1393, type: !865, scopeLine: 1393, flags: DIFlagPublic | DIFlagPrototyped, spFlags: DISPFlagOptimized)
!865 = !DISubroutineType(types: !866)
!866 = !{!21, !633, !175, !175, !388}
!867 = !DISubprogram(name: "compare", linkageName: "_ZNKSt3__112basic_stringIcNS_11char_traitsIcEENS_9allocatorIcEEE7compareEmmRKS5_mm", scope: !158, file: !159, line: 1394, type: !868, scopeLine: 1394, flags: DIFlagPublic | DIFlagPrototyped, spFlags: DISPFlagOptimized)
!868 = !DISubroutineType(types: !869)
!869 = !{!21, !633, !175, !175, !388, !175, !175}
!870 = !DISubprogram(name: "compare", linkageName: "_ZNKSt3__112basic_stringIcNS_11char_traitsIcEENS_9allocatorIcEEE7compareEPKc", scope: !158, file: !159, line: 1404, type: !871, scopeLine: 1404, flags: DIFlagPublic | DIFlagPrototyped, spFlags: DISPFlagOptimized)
!871 = !DISubroutineType(types: !872)
!872 = !{!21, !633, !647}
!873 = !DISubprogram(name: "compare", linkageName: "_ZNKSt3__112basic_stringIcNS_11char_traitsIcEENS_9allocatorIcEEE7compareEmmPKc", scope: !158, file: !159, line: 1405, type: !874, scopeLine: 1405, flags: DIFlagPublic | DIFlagPrototyped, spFlags: DISPFlagOptimized)
!874 = !DISubroutineType(types: !875)
!875 = !{!21, !633, !175, !175, !647}
!876 = !DISubprogram(name: "compare", linkageName: "_ZNKSt3__112basic_stringIcNS_11char_traitsIcEENS_9allocatorIcEEE7compareEmmPKcm", scope: !158, file: !159, line: 1406, type: !877, scopeLine: 1406, flags: DIFlagPublic | DIFlagPrototyped, spFlags: DISPFlagOptimized)
!877 = !DISubroutineType(types: !878)
!878 = !{!21, !633, !175, !175, !647, !175}
!879 = !DISubprogram(name: "__invariants", linkageName: "_ZNKSt3__112basic_stringIcNS_11char_traitsIcEENS_9allocatorIcEEE12__invariantsEv", scope: !158, file: !159, line: 1448, type: !699, scopeLine: 1448, flags: DIFlagPublic | DIFlagPrototyped, spFlags: DISPFlagOptimized)
!880 = !DISubprogram(name: "__clear_and_shrink", linkageName: "_ZNSt3__112basic_stringIcNS_11char_traitsIcEENS_9allocatorIcEEE18__clear_and_shrinkEv", scope: !158, file: !159, line: 1450, type: !376, scopeLine: 1450, flags: DIFlagPublic | DIFlagPrototyped, spFlags: DISPFlagOptimized)
!881 = !DISubprogram(name: "__shrink_or_extend", linkageName: "_ZNSt3__112basic_stringIcNS_11char_traitsIcEENS_9allocatorIcEEE18__shrink_or_extendEm", scope: !158, file: !159, line: 1452, type: !691, scopeLine: 1452, flags: DIFlagPublic | DIFlagPrototyped, spFlags: DISPFlagOptimized)
!882 = !DISubprogram(name: "__is_long", linkageName: "_ZNKSt3__112basic_stringIcNS_11char_traitsIcEENS_9allocatorIcEEE9__is_longEv", scope: !158, file: !159, line: 1455, type: !699, scopeLine: 1455, flags: DIFlagPublic | DIFlagPrototyped, spFlags: DISPFlagOptimized)
!883 = !DISubprogram(name: "__alloc", linkageName: "_ZNSt3__112basic_stringIcNS_11char_traitsIcEENS_9allocatorIcEEE7__allocEv", scope: !158, file: !159, line: 1469, type: !884, scopeLine: 1469, flags: DIFlagPrototyped, spFlags: DISPFlagOptimized)
!884 = !DISubroutineType(types: !885)
!885 = !{!886, !378}
!886 = !DIDerivedType(tag: DW_TAG_reference_type, baseType: !384, size: 64)
!887 = !DISubprogram(name: "__alloc", linkageName: "_ZNKSt3__112basic_stringIcNS_11char_traitsIcEENS_9allocatorIcEEE7__allocEv", scope: !158, file: !159, line: 1472, type: !888, scopeLine: 1472, flags: DIFlagPrototyped, spFlags: DISPFlagOptimized)
!888 = !DISubroutineType(types: !889)
!889 = !{!382, !633}
!890 = !DISubprogram(name: "__set_short_size", linkageName: "_ZNSt3__112basic_stringIcNS_11char_traitsIcEENS_9allocatorIcEEE16__set_short_sizeEm", scope: !158, file: !159, line: 1496, type: !691, scopeLine: 1496, flags: DIFlagPrototyped, spFlags: DISPFlagOptimized)
!891 = !DISubprogram(name: "__get_short_size", linkageName: "_ZNKSt3__112basic_stringIcNS_11char_traitsIcEENS_9allocatorIcEEE16__get_short_sizeEv", scope: !158, file: !159, line: 1504, type: !682, scopeLine: 1504, flags: DIFlagPrototyped, spFlags: DISPFlagOptimized)
!892 = !DISubprogram(name: "__set_long_size", linkageName: "_ZNSt3__112basic_stringIcNS_11char_traitsIcEENS_9allocatorIcEEE15__set_long_sizeEm", scope: !158, file: !159, line: 1514, type: !691, scopeLine: 1514, flags: DIFlagPrototyped, spFlags: DISPFlagOptimized)
!893 = !DISubprogram(name: "__get_long_size", linkageName: "_ZNKSt3__112basic_stringIcNS_11char_traitsIcEENS_9allocatorIcEEE15__get_long_sizeEv", scope: !158, file: !159, line: 1517, type: !682, scopeLine: 1517, flags: DIFlagPrototyped, spFlags: DISPFlagOptimized)
!894 = !DISubprogram(name: "__set_size", linkageName: "_ZNSt3__112basic_stringIcNS_11char_traitsIcEENS_9allocatorIcEEE10__set_sizeEm", scope: !158, file: !159, line: 1520, type: !691, scopeLine: 1520, flags: DIFlagPrototyped, spFlags: DISPFlagOptimized)
!895 = !DISubprogram(name: "__set_long_cap", linkageName: "_ZNSt3__112basic_stringIcNS_11char_traitsIcEENS_9allocatorIcEEE14__set_long_capEm", scope: !158, file: !159, line: 1524, type: !691, scopeLine: 1524, flags: DIFlagPrototyped, spFlags: DISPFlagOptimized)
!896 = !DISubprogram(name: "__get_long_cap", linkageName: "_ZNKSt3__112basic_stringIcNS_11char_traitsIcEENS_9allocatorIcEEE14__get_long_capEv", scope: !158, file: !159, line: 1527, type: !682, scopeLine: 1527, flags: DIFlagPrototyped, spFlags: DISPFlagOptimized)
!897 = !DISubprogram(name: "__set_long_pointer", linkageName: "_ZNSt3__112basic_stringIcNS_11char_traitsIcEENS_9allocatorIcEEE18__set_long_pointerEPc", scope: !158, file: !159, line: 1531, type: !898, scopeLine: 1531, flags: DIFlagPrototyped, spFlags: DISPFlagOptimized)
!898 = !DISubroutineType(types: !899)
!899 = !{null, !378, !264}
!900 = !DISubprogram(name: "__get_long_pointer", linkageName: "_ZNSt3__112basic_stringIcNS_11char_traitsIcEENS_9allocatorIcEEE18__get_long_pointerEv", scope: !158, file: !159, line: 1534, type: !901, scopeLine: 1534, flags: DIFlagPrototyped, spFlags: DISPFlagOptimized)
!901 = !DISubroutineType(types: !902)
!902 = !{!264, !378}
!903 = !DISubprogram(name: "__get_long_pointer", linkageName: "_ZNKSt3__112basic_stringIcNS_11char_traitsIcEENS_9allocatorIcEEE18__get_long_pointerEv", scope: !158, file: !159, line: 1537, type: !904, scopeLine: 1537, flags: DIFlagPrototyped, spFlags: DISPFlagOptimized)
!904 = !DISubroutineType(types: !905)
!905 = !{!906, !633}
!906 = !DIDerivedType(tag: DW_TAG_typedef, name: "const_pointer", scope: !158, file: !159, line: 705, baseType: !907)
!907 = !DIDerivedType(tag: DW_TAG_typedef, name: "const_pointer", scope: !178, file: !177, line: 234, baseType: !219)
!908 = !DISubprogram(name: "__get_short_pointer", linkageName: "_ZNSt3__112basic_stringIcNS_11char_traitsIcEENS_9allocatorIcEEE19__get_short_pointerEv", scope: !158, file: !159, line: 1540, type: !901, scopeLine: 1540, flags: DIFlagPrototyped, spFlags: DISPFlagOptimized)
!909 = !DISubprogram(name: "__get_short_pointer", linkageName: "_ZNKSt3__112basic_stringIcNS_11char_traitsIcEENS_9allocatorIcEEE19__get_short_pointerEv", scope: !158, file: !159, line: 1543, type: !904, scopeLine: 1543, flags: DIFlagPrototyped, spFlags: DISPFlagOptimized)
!910 = !DISubprogram(name: "__get_pointer", linkageName: "_ZNSt3__112basic_stringIcNS_11char_traitsIcEENS_9allocatorIcEEE13__get_pointerEv", scope: !158, file: !159, line: 1546, type: !901, scopeLine: 1546, flags: DIFlagPrototyped, spFlags: DISPFlagOptimized)
!911 = !DISubprogram(name: "__get_pointer", linkageName: "_ZNKSt3__112basic_stringIcNS_11char_traitsIcEENS_9allocatorIcEEE13__get_pointerEv", scope: !158, file: !159, line: 1549, type: !904, scopeLine: 1549, flags: DIFlagPrototyped, spFlags: DISPFlagOptimized)
!912 = !DISubprogram(name: "__zero", linkageName: "_ZNSt3__112basic_stringIcNS_11char_traitsIcEENS_9allocatorIcEEE6__zeroEv", scope: !158, file: !159, line: 1553, type: !376, scopeLine: 1553, flags: DIFlagPrototyped, spFlags: DISPFlagOptimized)
!913 = !DISubprogram(name: "__recommend", linkageName: "_ZNSt3__112basic_stringIcNS_11char_traitsIcEENS_9allocatorIcEEE11__recommendEm", scope: !158, file: !159, line: 1566, type: !914, scopeLine: 1566, flags: DIFlagPrototyped | DIFlagStaticMember, spFlags: DISPFlagOptimized)
!914 = !DISubroutineType(types: !915)
!915 = !{!175, !175}
!916 = !DISubprogram(name: "__init", linkageName: "_ZNSt3__112basic_stringIcNS_11char_traitsIcEENS_9allocatorIcEEE6__initEPKcmm", scope: !158, file: !159, line: 1576, type: !917, scopeLine: 1576, flags: DIFlagPrototyped, spFlags: DISPFlagOptimized)
!917 = !DISubroutineType(types: !918)
!918 = !{null, !378, !647, !175, !175}
!919 = !DISubprogram(name: "__init", linkageName: "_ZNSt3__112basic_stringIcNS_11char_traitsIcEENS_9allocatorIcEEE6__initEPKcm", scope: !158, file: !159, line: 1578, type: !920, scopeLine: 1578, flags: DIFlagPrototyped, spFlags: DISPFlagOptimized)
!920 = !DISubroutineType(types: !921)
!921 = !{null, !378, !647, !175}
!922 = !DISubprogram(name: "__init", linkageName: "_ZNSt3__112basic_stringIcNS_11char_traitsIcEENS_9allocatorIcEEE6__initEmc", scope: !158, file: !159, line: 1580, type: !688, scopeLine: 1580, flags: DIFlagPrototyped, spFlags: DISPFlagOptimized)
!923 = !DISubprogram(name: "__init_copy_ctor_external", linkageName: "_ZNSt3__112basic_stringIcNS_11char_traitsIcEENS_9allocatorIcEEE25__init_copy_ctor_externalEPKcm", scope: !158, file: !159, line: 1590, type: !920, scopeLine: 1590, flags: DIFlagPrototyped, spFlags: DISPFlagOptimized)
!924 = !DISubprogram(name: "__grow_by", linkageName: "_ZNSt3__112basic_stringIcNS_11char_traitsIcEENS_9allocatorIcEEE9__grow_byEmmmmmm", scope: !158, file: !159, line: 1608, type: !925, scopeLine: 1608, flags: DIFlagPrototyped, spFlags: DISPFlagOptimized)
!925 = !DISubroutineType(types: !926)
!926 = !{null, !378, !175, !175, !175, !175, !175, !175}
!927 = !DISubprogram(name: "__grow_by_and_replace", linkageName: "_ZNSt3__112basic_stringIcNS_11char_traitsIcEENS_9allocatorIcEEE21__grow_by_and_replaceEmmmmmmPKc", scope: !158, file: !159, line: 1610, type: !928, scopeLine: 1610, flags: DIFlagPrototyped, spFlags: DISPFlagOptimized)
!928 = !DISubroutineType(types: !929)
!929 = !{null, !378, !175, !175, !175, !175, !175, !175, !647}
!930 = !DISubprogram(name: "__erase_to_end", linkageName: "_ZNSt3__112basic_stringIcNS_11char_traitsIcEENS_9allocatorIcEEE14__erase_to_endEm", scope: !158, file: !159, line: 1621, type: !691, scopeLine: 1621, flags: DIFlagPrototyped, spFlags: DISPFlagOptimized)
!931 = !DISubprogram(name: "__erase_external_with_move", linkageName: "_ZNSt3__112basic_stringIcNS_11char_traitsIcEENS_9allocatorIcEEE26__erase_external_with_moveEmm", scope: !158, file: !159, line: 1625, type: !932, scopeLine: 1625, flags: DIFlagPrototyped, spFlags: DISPFlagOptimized)
!932 = !DISubroutineType(types: !933)
!933 = !{null, !378, !175, !175}
!934 = !DISubprogram(name: "__copy_assign_alloc", linkageName: "_ZNSt3__112basic_stringIcNS_11char_traitsIcEENS_9allocatorIcEEE19__copy_assign_allocERKS5_", scope: !158, file: !159, line: 1628, type: !386, scopeLine: 1628, flags: DIFlagPrototyped, spFlags: DISPFlagOptimized)
!935 = !DISubprogram(name: "__copy_assign_alloc", linkageName: "_ZNSt3__112basic_stringIcNS_11char_traitsIcEENS_9allocatorIcEEE19__copy_assign_allocERKS5_NS_17integral_constantIbLb1EEE", scope: !158, file: !159, line: 1633, type: !936, scopeLine: 1633, flags: DIFlagPrototyped, spFlags: DISPFlagOptimized)
!936 = !DISubroutineType(types: !937)
!937 = !{null, !378, !388, !938}
!938 = !DIDerivedType(tag: DW_TAG_typedef, name: "true_type", scope: !13, file: !939, line: 458, baseType: !940)
!939 = !DIFile(filename: "LLVM/llvm/build-release-clang-lldb-13.0.0/bin/../include/c++/v1/type_traits", directory: "/Users/jryans/Projects")
!940 = distinct !DICompositeType(tag: DW_TAG_structure_type, name: "integral_constant<bool, true>", scope: !13, file: !939, line: 434, size: 8, flags: DIFlagTypePassByValue, elements: !941, templateParams: !951, identifier: "_ZTSNSt3__117integral_constantIbLb1EEE")
!941 = !{!942, !944, !950}
!942 = !DIDerivedType(tag: DW_TAG_member, name: "value", scope: !940, file: !939, line: 436, baseType: !943, flags: DIFlagStaticMember, extraData: i1 true)
!943 = !DIDerivedType(tag: DW_TAG_const_type, baseType: !172)
!944 = !DISubprogram(name: "operator bool", linkageName: "_ZNKSt3__117integral_constantIbLb1EEcvbEv", scope: !940, file: !939, line: 440, type: !945, scopeLine: 440, flags: DIFlagPrototyped, spFlags: DISPFlagOptimized)
!945 = !DISubroutineType(types: !946)
!946 = !{!947, !948}
!947 = !DIDerivedType(tag: DW_TAG_typedef, name: "value_type", scope: !940, file: !939, line: 437, baseType: !172)
!948 = !DIDerivedType(tag: DW_TAG_pointer_type, baseType: !949, size: 64, flags: DIFlagArtificial | DIFlagObjectPointer)
!949 = !DIDerivedType(tag: DW_TAG_const_type, baseType: !940)
!950 = !DISubprogram(name: "operator()", linkageName: "_ZNKSt3__117integral_constantIbLb1EEclEv", scope: !940, file: !939, line: 443, type: !945, scopeLine: 443, flags: DIFlagPrototyped, spFlags: DISPFlagOptimized)
!951 = !{!952, !953}
!952 = !DITemplateTypeParameter(name: "_Tp", type: !172)
!953 = !DITemplateValueParameter(name: "__v", type: !172, value: i8 1)
!954 = !DISubprogram(name: "__copy_assign_alloc", linkageName: "_ZNSt3__112basic_stringIcNS_11char_traitsIcEENS_9allocatorIcEEE19__copy_assign_allocERKS5_NS_17integral_constantIbLb0EEE", scope: !158, file: !159, line: 1658, type: !955, scopeLine: 1658, flags: DIFlagPrototyped, spFlags: DISPFlagOptimized)
!955 = !DISubroutineType(types: !956)
!956 = !{null, !378, !388, !957}
!957 = !DIDerivedType(tag: DW_TAG_typedef, name: "false_type", scope: !13, file: !939, line: 459, baseType: !958)
!958 = distinct !DICompositeType(tag: DW_TAG_structure_type, name: "integral_constant<bool, false>", scope: !13, file: !939, line: 434, size: 8, flags: DIFlagTypePassByValue, elements: !959, templateParams: !968, identifier: "_ZTSNSt3__117integral_constantIbLb0EEE")
!959 = !{!960, !961, !967}
!960 = !DIDerivedType(tag: DW_TAG_member, name: "value", scope: !958, file: !939, line: 436, baseType: !943, flags: DIFlagStaticMember, extraData: i1 false)
!961 = !DISubprogram(name: "operator bool", linkageName: "_ZNKSt3__117integral_constantIbLb0EEcvbEv", scope: !958, file: !939, line: 440, type: !962, scopeLine: 440, flags: DIFlagPrototyped, spFlags: DISPFlagOptimized)
!962 = !DISubroutineType(types: !963)
!963 = !{!964, !965}
!964 = !DIDerivedType(tag: DW_TAG_typedef, name: "value_type", scope: !958, file: !939, line: 437, baseType: !172)
!965 = !DIDerivedType(tag: DW_TAG_pointer_type, baseType: !966, size: 64, flags: DIFlagArtificial | DIFlagObjectPointer)
!966 = !DIDerivedType(tag: DW_TAG_const_type, baseType: !958)
!967 = !DISubprogram(name: "operator()", linkageName: "_ZNKSt3__117integral_constantIbLb0EEclEv", scope: !958, file: !939, line: 443, type: !962, scopeLine: 443, flags: DIFlagPrototyped, spFlags: DISPFlagOptimized)
!968 = !{!952, !969}
!969 = !DITemplateValueParameter(name: "__v", type: !172, value: i8 0)
!970 = !DISubprogram(name: "__move_assign", linkageName: "_ZNSt3__112basic_stringIcNS_11char_traitsIcEENS_9allocatorIcEEE13__move_assignERS5_NS_17integral_constantIbLb0EEE", scope: !158, file: !159, line: 1663, type: !971, scopeLine: 1663, flags: DIFlagPrototyped, spFlags: DISPFlagOptimized)
!971 = !DISubroutineType(types: !972)
!972 = !{null, !378, !637, !957}
!973 = !DISubprogram(name: "__move_assign", linkageName: "_ZNSt3__112basic_stringIcNS_11char_traitsIcEENS_9allocatorIcEEE13__move_assignERS5_NS_17integral_constantIbLb1EEE", scope: !158, file: !159, line: 1666, type: !974, scopeLine: 1666, flags: DIFlagPrototyped, spFlags: DISPFlagOptimized)
!974 = !DISubroutineType(types: !975)
!975 = !{null, !378, !637, !938}
!976 = !DISubprogram(name: "__move_assign_alloc", linkageName: "_ZNSt3__112basic_stringIcNS_11char_traitsIcEENS_9allocatorIcEEE19__move_assign_allocERS5_", scope: !158, file: !159, line: 1676, type: !820, scopeLine: 1676, flags: DIFlagPrototyped, spFlags: DISPFlagOptimized)
!977 = !DISubprogram(name: "__move_assign_alloc", linkageName: "_ZNSt3__112basic_stringIcNS_11char_traitsIcEENS_9allocatorIcEEE19__move_assign_allocERS5_NS_17integral_constantIbLb1EEE", scope: !158, file: !159, line: 1684, type: !974, scopeLine: 1684, flags: DIFlagPrototyped, spFlags: DISPFlagOptimized)
!978 = !DISubprogram(name: "__move_assign_alloc", linkageName: "_ZNSt3__112basic_stringIcNS_11char_traitsIcEENS_9allocatorIcEEE19__move_assign_allocERS5_NS_17integral_constantIbLb0EEE", scope: !158, file: !159, line: 1691, type: !971, scopeLine: 1691, flags: DIFlagPrototyped, spFlags: DISPFlagOptimized)
!979 = !DISubprogram(name: "__assign_external", linkageName: "_ZNSt3__112basic_stringIcNS_11char_traitsIcEENS_9allocatorIcEEE17__assign_externalEPKc", scope: !158, file: !159, line: 1695, type: !645, scopeLine: 1695, flags: DIFlagPrototyped, spFlags: DISPFlagOptimized)
!980 = !DISubprogram(name: "__assign_external", linkageName: "_ZNSt3__112basic_stringIcNS_11char_traitsIcEENS_9allocatorIcEEE17__assign_externalEPKcm", scope: !158, file: !159, line: 1696, type: !722, scopeLine: 1696, flags: DIFlagPrototyped, spFlags: DISPFlagOptimized)
!981 = !DISubprogram(name: "__assign_short", linkageName: "_ZNSt3__112basic_stringIcNS_11char_traitsIcEENS_9allocatorIcEEE14__assign_shortEPKcm", scope: !158, file: !159, line: 1699, type: !722, scopeLine: 1699, flags: DIFlagPrototyped, spFlags: DISPFlagOptimized)
!982 = !DISubprogram(name: "__invalidate_all_iterators", linkageName: "_ZNSt3__112basic_stringIcNS_11char_traitsIcEENS_9allocatorIcEEE26__invalidate_all_iteratorsEv", scope: !158, file: !159, line: 1708, type: !376, scopeLine: 1708, flags: DIFlagPrototyped, spFlags: DISPFlagOptimized)
!983 = !DISubprogram(name: "__invalidate_iterators_past", linkageName: "_ZNSt3__112basic_stringIcNS_11char_traitsIcEENS_9allocatorIcEEE27__invalidate_iterators_pastEm", scope: !158, file: !159, line: 1709, type: !691, scopeLine: 1709, flags: DIFlagPrototyped, spFlags: DISPFlagOptimized)
!984 = !DISubprogram(name: "__throw_length_error", linkageName: "_ZNKSt3__112basic_stringIcNS_11char_traitsIcEENS_9allocatorIcEEE20__throw_length_errorEv", scope: !158, file: !159, line: 1719, type: !985, scopeLine: 1719, flags: DIFlagPrototyped | DIFlagNoReturn, spFlags: DISPFlagOptimized)
!985 = !DISubroutineType(types: !986)
!986 = !{null, !633}
!987 = !DISubprogram(name: "__throw_out_of_range", linkageName: "_ZNKSt3__112basic_stringIcNS_11char_traitsIcEENS_9allocatorIcEEE20__throw_out_of_rangeEv", scope: !158, file: !159, line: 1728, type: !985, scopeLine: 1728, flags: DIFlagPrototyped | DIFlagNoReturn, spFlags: DISPFlagOptimized)
!988 = !{!582, !583, !989}
!989 = !DITemplateTypeParameter(name: "_Allocator", type: !186)
!990 = !DISubprogram(name: "locale", scope: !120, file: !121, line: 149, type: !991, scopeLine: 149, flags: DIFlagPublic | DIFlagPrototyped, spFlags: DISPFlagOptimized)
!991 = !DISubroutineType(types: !992)
!992 = !{null, !139, !143, !148, !125}
!993 = !DISubprogram(name: "locale", scope: !120, file: !121, line: 150, type: !994, scopeLine: 150, flags: DIFlagPublic | DIFlagPrototyped, spFlags: DISPFlagOptimized)
!994 = !DISubroutineType(types: !995)
!995 = !{null, !139, !143, !154, !125}
!996 = !DISubprogram(name: "locale", scope: !120, file: !121, line: 153, type: !997, scopeLine: 153, flags: DIFlagPublic | DIFlagPrototyped, spFlags: DISPFlagOptimized)
!997 = !DISubroutineType(types: !998)
!998 = !{null, !139, !143, !143, !125}
!999 = !DISubprogram(name: "~locale", scope: !120, file: !121, line: 155, type: !137, scopeLine: 155, flags: DIFlagPublic | DIFlagPrototyped, spFlags: DISPFlagOptimized)
!1000 = !DISubprogram(name: "operator=", linkageName: "_ZNSt3__16localeaSERKS0_", scope: !120, file: !121, line: 157, type: !1001, scopeLine: 157, flags: DIFlagPublic | DIFlagPrototyped, spFlags: DISPFlagOptimized)
!1001 = !DISubroutineType(types: !1002)
!1002 = !{!143, !139, !143}
!1003 = !DISubprogram(name: "name", linkageName: "_ZNKSt3__16locale4nameEv", scope: !120, file: !121, line: 164, type: !1004, scopeLine: 164, flags: DIFlagPublic | DIFlagPrototyped, spFlags: DISPFlagOptimized)
!1004 = !DISubroutineType(types: !1005)
!1005 = !{!156, !1006}
!1006 = !DIDerivedType(tag: DW_TAG_pointer_type, baseType: !144, size: 64, flags: DIFlagArtificial | DIFlagObjectPointer)
!1007 = !DISubprogram(name: "operator==", linkageName: "_ZNKSt3__16localeeqERKS0_", scope: !120, file: !121, line: 165, type: !1008, scopeLine: 165, flags: DIFlagPublic | DIFlagPrototyped, spFlags: DISPFlagOptimized)
!1008 = !DISubroutineType(types: !1009)
!1009 = !{!172, !1006, !143}
!1010 = !DISubprogram(name: "operator!=", linkageName: "_ZNKSt3__16localeneERKS0_", scope: !120, file: !121, line: 166, type: !1008, scopeLine: 166, flags: DIFlagPublic | DIFlagPrototyped, spFlags: DISPFlagOptimized)
!1011 = !DISubprogram(name: "global", linkageName: "_ZNSt3__16locale6globalERKS0_", scope: !120, file: !121, line: 173, type: !1012, scopeLine: 173, flags: DIFlagPublic | DIFlagPrototyped | DIFlagStaticMember, spFlags: DISPFlagOptimized)
!1012 = !DISubroutineType(types: !1013)
!1013 = !{!120, !143}
!1014 = !DISubprogram(name: "classic", linkageName: "_ZNSt3__16locale7classicEv", scope: !120, file: !121, line: 174, type: !1015, scopeLine: 174, flags: DIFlagPublic | DIFlagPrototyped | DIFlagStaticMember, spFlags: DISPFlagOptimized)
!1015 = !DISubroutineType(types: !1016)
!1016 = !{!143}
!1017 = !DISubprogram(name: "__install_ctor", linkageName: "_ZNSt3__16locale14__install_ctorERKS0_PNS0_5facetEl", scope: !120, file: !121, line: 180, type: !1018, scopeLine: 180, flags: DIFlagPrototyped, spFlags: DISPFlagOptimized)
!1018 = !DISubroutineType(types: !1019)
!1019 = !{null, !139, !143, !1020, !62}
!1020 = !DIDerivedType(tag: DW_TAG_pointer_type, baseType: !1021, size: 64)
!1021 = distinct !DICompositeType(tag: DW_TAG_class_type, name: "facet", scope: !120, file: !121, line: 189, size: 128, flags: DIFlagTypePassByReference | DIFlagNonTrivial, elements: !1022, vtableHolder: !1024, identifier: "_ZTSNSt3__16locale5facetE")
!1022 = !{!1023, !1054, !1058, !1061}
!1023 = !DIDerivedType(tag: DW_TAG_inheritance, scope: !1021, baseType: !1024, flags: DIFlagPublic, extraData: i32 0)
!1024 = distinct !DICompositeType(tag: DW_TAG_class_type, name: "__shared_count", scope: !13, file: !1025, line: 149, size: 128, flags: DIFlagTypePassByReference | DIFlagNonTrivial, elements: !1026, vtableHolder: !1024, identifier: "_ZTSNSt3__114__shared_countE")
!1025 = !DIFile(filename: "LLVM/llvm/build-release-clang-lldb-13.0.0/bin/../include/c++/v1/__memory/shared_ptr.h", directory: "/Users/jryans/Projects")
!1026 = !{!1027, !1028, !1029, !1035, !1039, !1042, !1043, !1046, !1047, !1050}
!1027 = !DIDerivedType(tag: DW_TAG_member, name: "_vptr$__shared_count", scope: !1025, file: !1025, baseType: !17, size: 64, flags: DIFlagArtificial)
!1028 = !DIDerivedType(tag: DW_TAG_member, name: "__shared_owners_", scope: !1024, file: !1025, line: 155, baseType: !62, size: 64, offset: 64, flags: DIFlagProtected)
!1029 = !DISubprogram(name: "__shared_count", scope: !1024, file: !1025, line: 151, type: !1030, scopeLine: 151, flags: DIFlagPrototyped, spFlags: DISPFlagOptimized)
!1030 = !DISubroutineType(types: !1031)
!1031 = !{null, !1032, !1033}
!1032 = !DIDerivedType(tag: DW_TAG_pointer_type, baseType: !1024, size: 64, flags: DIFlagArtificial | DIFlagObjectPointer)
!1033 = !DIDerivedType(tag: DW_TAG_reference_type, baseType: !1034, size: 64)
!1034 = !DIDerivedType(tag: DW_TAG_const_type, baseType: !1024)
!1035 = !DISubprogram(name: "operator=", linkageName: "_ZNSt3__114__shared_countaSERKS0_", scope: !1024, file: !1025, line: 152, type: !1036, scopeLine: 152, flags: DIFlagPrototyped, spFlags: DISPFlagOptimized)
!1036 = !DISubroutineType(types: !1037)
!1037 = !{!1038, !1032, !1033}
!1038 = !DIDerivedType(tag: DW_TAG_reference_type, baseType: !1024, size: 64)
!1039 = !DISubprogram(name: "~__shared_count", scope: !1024, file: !1025, line: 156, type: !1040, scopeLine: 156, containingType: !1024, virtualIndex: 0, flags: DIFlagProtected | DIFlagPrototyped, spFlags: DISPFlagVirtual | DISPFlagOptimized)
!1040 = !DISubroutineType(types: !1041)
!1041 = !{null, !1032}
!1042 = !DISubprogram(name: "__on_zero_shared", linkageName: "_ZNSt3__114__shared_count16__on_zero_sharedEv", scope: !1024, file: !1025, line: 158, type: !1040, scopeLine: 158, containingType: !1024, virtualIndex: 2, flags: DIFlagPrototyped, spFlags: DISPFlagPureVirtual | DISPFlagOptimized)
!1043 = !DISubprogram(name: "__shared_count", scope: !1024, file: !1025, line: 162, type: !1044, scopeLine: 162, flags: DIFlagPublic | DIFlagExplicit | DIFlagPrototyped, spFlags: DISPFlagOptimized)
!1044 = !DISubroutineType(types: !1045)
!1045 = !{null, !1032, !62}
!1046 = !DISubprogram(name: "__add_shared", linkageName: "_ZNSt3__114__shared_count12__add_sharedEv", scope: !1024, file: !1025, line: 171, type: !1040, scopeLine: 171, flags: DIFlagPublic | DIFlagPrototyped, spFlags: DISPFlagOptimized)
!1047 = !DISubprogram(name: "__release_shared", linkageName: "_ZNSt3__114__shared_count16__release_sharedEv", scope: !1024, file: !1025, line: 175, type: !1048, scopeLine: 175, flags: DIFlagPublic | DIFlagPrototyped, spFlags: DISPFlagOptimized)
!1048 = !DISubroutineType(types: !1049)
!1049 = !{!172, !1032}
!1050 = !DISubprogram(name: "use_count", linkageName: "_ZNKSt3__114__shared_count9use_countEv", scope: !1024, file: !1025, line: 184, type: !1051, scopeLine: 184, flags: DIFlagPublic | DIFlagPrototyped, spFlags: DISPFlagOptimized)
!1051 = !DISubroutineType(types: !1052)
!1052 = !{!62, !1053}
!1053 = !DIDerivedType(tag: DW_TAG_pointer_type, baseType: !1034, size: 64, flags: DIFlagArtificial | DIFlagObjectPointer)
!1054 = !DISubprogram(name: "facet", scope: !1021, file: !121, line: 194, type: !1055, scopeLine: 194, flags: DIFlagProtected | DIFlagExplicit | DIFlagPrototyped, spFlags: DISPFlagOptimized)
!1055 = !DISubroutineType(types: !1056)
!1056 = !{null, !1057, !79}
!1057 = !DIDerivedType(tag: DW_TAG_pointer_type, baseType: !1021, size: 64, flags: DIFlagArtificial | DIFlagObjectPointer)
!1058 = !DISubprogram(name: "~facet", scope: !1021, file: !121, line: 197, type: !1059, scopeLine: 197, containingType: !1021, virtualIndex: 0, flags: DIFlagProtected | DIFlagPrototyped, spFlags: DISPFlagVirtual | DISPFlagOptimized)
!1059 = !DISubroutineType(types: !1060)
!1060 = !{null, !1057}
!1061 = !DISubprogram(name: "__on_zero_shared", linkageName: "_ZNSt3__16locale5facet16__on_zero_sharedEv", scope: !1021, file: !121, line: 202, type: !1059, scopeLine: 202, containingType: !1021, virtualIndex: 2, flags: DIFlagPrototyped, spFlags: DISPFlagVirtual | DISPFlagOptimized)
!1062 = !DISubprogram(name: "__global", linkageName: "_ZNSt3__16locale8__globalEv", scope: !120, file: !121, line: 181, type: !1063, scopeLine: 181, flags: DIFlagPrototyped | DIFlagStaticMember, spFlags: DISPFlagOptimized)
!1063 = !DISubroutineType(types: !1064)
!1064 = !{!1065}
!1065 = !DIDerivedType(tag: DW_TAG_reference_type, baseType: !120, size: 64)
!1066 = !DISubprogram(name: "has_facet", linkageName: "_ZNKSt3__16locale9has_facetERNS0_2idE", scope: !120, file: !121, line: 182, type: !1067, scopeLine: 182, flags: DIFlagPrototyped, spFlags: DISPFlagOptimized)
!1067 = !DISubroutineType(types: !1068)
!1068 = !{!172, !1006, !1069}
!1069 = !DIDerivedType(tag: DW_TAG_reference_type, baseType: !1070, size: 64)
!1070 = distinct !DICompositeType(tag: DW_TAG_class_type, name: "id", scope: !120, file: !121, line: 205, size: 128, flags: DIFlagTypePassByReference | DIFlagNonTrivial, elements: !1071, identifier: "_ZTSNSt3__16locale2idE")
!1071 = !{!1072, !1091, !1094, !1095, !1099, !1100, !1105, !1106}
!1072 = !DIDerivedType(tag: DW_TAG_member, name: "__flag_", scope: !1070, file: !121, line: 207, baseType: !1073, size: 64)
!1073 = distinct !DICompositeType(tag: DW_TAG_structure_type, name: "once_flag", scope: !13, file: !1074, line: 574, size: 64, flags: DIFlagTypePassByReference | DIFlagNonTrivial, elements: !1075, identifier: "_ZTSNSt3__19once_flagE")
!1074 = !DIFile(filename: "LLVM/llvm/build-release-clang-lldb-13.0.0/bin/../include/c++/v1/mutex", directory: "/Users/jryans/Projects")
!1075 = !{!1076, !1078, !1082, !1087}
!1076 = !DIDerivedType(tag: DW_TAG_member, name: "__state_", scope: !1073, file: !1074, line: 591, baseType: !1077, size: 64, flags: DIFlagPrivate)
!1077 = !DIDerivedType(tag: DW_TAG_typedef, name: "_State_type", scope: !1073, file: !1074, line: 583, baseType: !80)
!1078 = !DISubprogram(name: "once_flag", scope: !1073, file: !1074, line: 578, type: !1079, scopeLine: 578, flags: DIFlagPrototyped, spFlags: DISPFlagOptimized)
!1079 = !DISubroutineType(types: !1080)
!1080 = !{null, !1081}
!1081 = !DIDerivedType(tag: DW_TAG_pointer_type, baseType: !1073, size: 64, flags: DIFlagArtificial | DIFlagObjectPointer)
!1082 = !DISubprogram(name: "once_flag", scope: !1073, file: !1074, line: 588, type: !1083, scopeLine: 588, flags: DIFlagPrivate | DIFlagPrototyped, spFlags: DISPFlagOptimized)
!1083 = !DISubroutineType(types: !1084)
!1084 = !{null, !1081, !1085}
!1085 = !DIDerivedType(tag: DW_TAG_reference_type, baseType: !1086, size: 64)
!1086 = !DIDerivedType(tag: DW_TAG_const_type, baseType: !1073)
!1087 = !DISubprogram(name: "operator=", linkageName: "_ZNSt3__19once_flagaSERKS0_", scope: !1073, file: !1074, line: 589, type: !1088, scopeLine: 589, flags: DIFlagPrivate | DIFlagPrototyped, spFlags: DISPFlagOptimized)
!1088 = !DISubroutineType(types: !1089)
!1089 = !{!1090, !1081, !1085}
!1090 = !DIDerivedType(tag: DW_TAG_reference_type, baseType: !1073, size: 64)
!1091 = !DIDerivedType(tag: DW_TAG_member, name: "__id_", scope: !1070, file: !121, line: 208, baseType: !1092, size: 32, offset: 64)
!1092 = !DIDerivedType(tag: DW_TAG_typedef, name: "int32_t", file: !1093, line: 30, baseType: !21)
!1093 = !DIFile(filename: "/Applications/Xcode.app/Contents/Developer/Platforms/MacOSX.platform/Developer/SDKs/MacOSX.sdk/usr/include/sys/_types/_int32_t.h", directory: "")
!1094 = !DIDerivedType(tag: DW_TAG_member, name: "__next_id", scope: !1070, file: !121, line: 210, baseType: !1092, flags: DIFlagStaticMember)
!1095 = !DISubprogram(name: "id", scope: !1070, file: !121, line: 212, type: !1096, scopeLine: 212, flags: DIFlagPublic | DIFlagPrototyped, spFlags: DISPFlagOptimized)
!1096 = !DISubroutineType(types: !1097)
!1097 = !{null, !1098}
!1098 = !DIDerivedType(tag: DW_TAG_pointer_type, baseType: !1070, size: 64, flags: DIFlagArtificial | DIFlagObjectPointer)
!1099 = !DISubprogram(name: "__init", linkageName: "_ZNSt3__16locale2id6__initEv", scope: !1070, file: !121, line: 214, type: !1096, scopeLine: 214, flags: DIFlagPrototyped, spFlags: DISPFlagOptimized)
!1100 = !DISubprogram(name: "operator=", linkageName: "_ZNSt3__16locale2idaSERKS1_", scope: !1070, file: !121, line: 215, type: !1101, scopeLine: 215, flags: DIFlagPrototyped, spFlags: DISPFlagOptimized)
!1101 = !DISubroutineType(types: !1102)
!1102 = !{null, !1098, !1103}
!1103 = !DIDerivedType(tag: DW_TAG_reference_type, baseType: !1104, size: 64)
!1104 = !DIDerivedType(tag: DW_TAG_const_type, baseType: !1070)
!1105 = !DISubprogram(name: "id", scope: !1070, file: !121, line: 216, type: !1101, scopeLine: 216, flags: DIFlagPrototyped, spFlags: DISPFlagOptimized)
!1106 = !DISubprogram(name: "__get", linkageName: "_ZNSt3__16locale2id5__getEv", scope: !1070, file: !121, line: 218, type: !1107, scopeLine: 218, flags: DIFlagPublic | DIFlagPrototyped, spFlags: DISPFlagOptimized)
!1107 = !DISubroutineType(types: !1108)
!1108 = !{!62, !1098}
!1109 = !DISubprogram(name: "use_facet", linkageName: "_ZNKSt3__16locale9use_facetERNS0_2idE", scope: !120, file: !121, line: 183, type: !1110, scopeLine: 183, flags: DIFlagPrototyped, spFlags: DISPFlagOptimized)
!1110 = !DISubroutineType(types: !1111)
!1111 = !{!1112, !1006, !1069}
!1112 = !DIDerivedType(tag: DW_TAG_pointer_type, baseType: !1113, size: 64)
!1113 = !DIDerivedType(tag: DW_TAG_const_type, baseType: !1021)
!1114 = !DISubprogram(name: "getloc", linkageName: "_ZNKSt3__18ios_base6getlocEv", scope: !12, file: !11, line: 296, type: !1115, scopeLine: 296, flags: DIFlagPublic | DIFlagPrototyped, spFlags: DISPFlagOptimized)
!1115 = !DISubroutineType(types: !1116)
!1116 = !{!120, !96}
!1117 = !DISubprogram(name: "xalloc", linkageName: "_ZNSt3__18ios_base6xallocEv", scope: !12, file: !11, line: 299, type: !19, scopeLine: 299, flags: DIFlagPublic | DIFlagPrototyped | DIFlagStaticMember, spFlags: DISPFlagOptimized)
!1118 = !DISubprogram(name: "iword", linkageName: "_ZNSt3__18ios_base5iwordEi", scope: !12, file: !11, line: 300, type: !1119, scopeLine: 300, flags: DIFlagPublic | DIFlagPrototyped, spFlags: DISPFlagOptimized)
!1119 = !DISubroutineType(types: !1120)
!1120 = !{!1121, !101, !21}
!1121 = !DIDerivedType(tag: DW_TAG_reference_type, baseType: !62, size: 64)
!1122 = !DISubprogram(name: "pword", linkageName: "_ZNSt3__18ios_base5pwordEi", scope: !12, file: !11, line: 301, type: !1123, scopeLine: 301, flags: DIFlagPublic | DIFlagPrototyped, spFlags: DISPFlagOptimized)
!1123 = !DISubroutineType(types: !1124)
!1124 = !{!1125, !101, !21}
!1125 = !DIDerivedType(tag: DW_TAG_reference_type, baseType: !67, size: 64)
!1126 = !DISubprogram(name: "~ios_base", scope: !12, file: !11, line: 304, type: !1127, scopeLine: 304, containingType: !12, virtualIndex: 0, flags: DIFlagPublic | DIFlagPrototyped, spFlags: DISPFlagVirtual | DISPFlagOptimized)
!1127 = !DISubroutineType(types: !1128)
!1128 = !{null, !101}
!1129 = !DISubprogram(name: "register_callback", linkageName: "_ZNSt3__18ios_base17register_callbackEPFvNS0_5eventERS0_iEi", scope: !12, file: !11, line: 309, type: !1130, scopeLine: 309, flags: DIFlagPublic | DIFlagPrototyped, spFlags: DISPFlagOptimized)
!1130 = !DISubroutineType(types: !1131)
!1131 = !{null, !101, !71, !21}
!1132 = !DISubprogram(name: "ios_base", scope: !12, file: !11, line: 312, type: !1133, scopeLine: 312, flags: DIFlagPrototyped, spFlags: DISPFlagOptimized)
!1133 = !DISubroutineType(types: !1134)
!1134 = !{null, !101, !1135}
!1135 = !DIDerivedType(tag: DW_TAG_reference_type, baseType: !97, size: 64)
!1136 = !DISubprogram(name: "operator=", linkageName: "_ZNSt3__18ios_baseaSERKS0_", scope: !12, file: !11, line: 313, type: !1137, scopeLine: 313, flags: DIFlagPrototyped, spFlags: DISPFlagOptimized)
!1137 = !DISubroutineType(types: !1138)
!1138 = !{!75, !101, !1135}
!1139 = !DISubprogram(name: "sync_with_stdio", linkageName: "_ZNSt3__18ios_base15sync_with_stdioEb", scope: !12, file: !11, line: 316, type: !1140, scopeLine: 316, flags: DIFlagPublic | DIFlagPrototyped | DIFlagStaticMember, spFlags: DISPFlagOptimized)
!1140 = !DISubroutineType(types: !1141)
!1141 = !{!172, !172}
!1142 = !DISubprogram(name: "rdstate", linkageName: "_ZNKSt3__18ios_base7rdstateEv", scope: !12, file: !11, line: 318, type: !1143, scopeLine: 318, flags: DIFlagPublic | DIFlagPrototyped, spFlags: DISPFlagOptimized)
!1143 = !DISubroutineType(types: !1144)
!1144 = !{!45, !96}
!1145 = !DISubprogram(name: "clear", linkageName: "_ZNSt3__18ios_base5clearEj", scope: !12, file: !11, line: 319, type: !1146, scopeLine: 319, flags: DIFlagPublic | DIFlagPrototyped, spFlags: DISPFlagOptimized)
!1146 = !DISubroutineType(types: !1147)
!1147 = !{null, !101, !45}
!1148 = !DISubprogram(name: "setstate", linkageName: "_ZNSt3__18ios_base8setstateEj", scope: !12, file: !11, line: 320, type: !1146, scopeLine: 320, flags: DIFlagPublic | DIFlagPrototyped, spFlags: DISPFlagOptimized)
!1149 = !DISubprogram(name: "good", linkageName: "_ZNKSt3__18ios_base4goodEv", scope: !12, file: !11, line: 322, type: !1150, scopeLine: 322, flags: DIFlagPublic | DIFlagPrototyped, spFlags: DISPFlagOptimized)
!1150 = !DISubroutineType(types: !1151)
!1151 = !{!172, !96}
!1152 = !DISubprogram(name: "eof", linkageName: "_ZNKSt3__18ios_base3eofEv", scope: !12, file: !11, line: 323, type: !1150, scopeLine: 323, flags: DIFlagPublic | DIFlagPrototyped, spFlags: DISPFlagOptimized)
!1153 = !DISubprogram(name: "fail", linkageName: "_ZNKSt3__18ios_base4failEv", scope: !12, file: !11, line: 324, type: !1150, scopeLine: 324, flags: DIFlagPublic | DIFlagPrototyped, spFlags: DISPFlagOptimized)
!1154 = !DISubprogram(name: "bad", linkageName: "_ZNKSt3__18ios_base3badEv", scope: !12, file: !11, line: 325, type: !1150, scopeLine: 325, flags: DIFlagPublic | DIFlagPrototyped, spFlags: DISPFlagOptimized)
!1155 = !DISubprogram(name: "exceptions", linkageName: "_ZNKSt3__18ios_base10exceptionsEv", scope: !12, file: !11, line: 327, type: !1143, scopeLine: 327, flags: DIFlagPublic | DIFlagPrototyped, spFlags: DISPFlagOptimized)
!1156 = !DISubprogram(name: "exceptions", linkageName: "_ZNSt3__18ios_base10exceptionsEj", scope: !12, file: !11, line: 328, type: !1146, scopeLine: 328, flags: DIFlagPublic | DIFlagPrototyped, spFlags: DISPFlagOptimized)
!1157 = !DISubprogram(name: "__set_badbit_and_consider_rethrow", linkageName: "_ZNSt3__18ios_base33__set_badbit_and_consider_rethrowEv", scope: !12, file: !11, line: 330, type: !1127, scopeLine: 330, flags: DIFlagPublic | DIFlagPrototyped, spFlags: DISPFlagOptimized)
!1158 = !DISubprogram(name: "__set_failbit_and_consider_rethrow", linkageName: "_ZNSt3__18ios_base34__set_failbit_and_consider_rethrowEv", scope: !12, file: !11, line: 331, type: !1127, scopeLine: 331, flags: DIFlagPublic | DIFlagPrototyped, spFlags: DISPFlagOptimized)
!1159 = !DISubprogram(name: "__setstate_nothrow", linkageName: "_ZNSt3__18ios_base18__setstate_nothrowEj", scope: !12, file: !11, line: 334, type: !1146, scopeLine: 334, flags: DIFlagPublic | DIFlagPrototyped, spFlags: DISPFlagOptimized)
!1160 = !DISubprogram(name: "ios_base", scope: !12, file: !11, line: 344, type: !1127, scopeLine: 344, flags: DIFlagProtected | DIFlagPrototyped, spFlags: DISPFlagOptimized)
!1161 = !DISubprogram(name: "init", linkageName: "_ZNSt3__18ios_base4initEPv", scope: !12, file: !11, line: 347, type: !1162, scopeLine: 347, flags: DIFlagProtected | DIFlagPrototyped, spFlags: DISPFlagOptimized)
!1162 = !DISubroutineType(types: !1163)
!1163 = !{null, !101, !67}
!1164 = !DISubprogram(name: "rdbuf", linkageName: "_ZNKSt3__18ios_base5rdbufEv", scope: !12, file: !11, line: 348, type: !1165, scopeLine: 348, flags: DIFlagProtected | DIFlagPrototyped, spFlags: DISPFlagOptimized)
!1165 = !DISubroutineType(types: !1166)
!1166 = !{!67, !96}
!1167 = !DISubprogram(name: "rdbuf", linkageName: "_ZNSt3__18ios_base5rdbufEPv", scope: !12, file: !11, line: 351, type: !1162, scopeLine: 351, flags: DIFlagProtected | DIFlagPrototyped, spFlags: DISPFlagOptimized)
!1168 = !DISubprogram(name: "__call_callbacks", linkageName: "_ZNSt3__18ios_base16__call_callbacksENS0_5eventE", scope: !12, file: !11, line: 357, type: !1169, scopeLine: 357, flags: DIFlagProtected | DIFlagPrototyped, spFlags: DISPFlagOptimized)
!1169 = !DISubroutineType(types: !1170)
!1170 = !{null, !101, !10}
!1171 = !DISubprogram(name: "copyfmt", linkageName: "_ZNSt3__18ios_base7copyfmtERKS0_", scope: !12, file: !11, line: 358, type: !1133, scopeLine: 358, flags: DIFlagProtected | DIFlagPrototyped, spFlags: DISPFlagOptimized)
!1172 = !DISubprogram(name: "move", linkageName: "_ZNSt3__18ios_base4moveERS0_", scope: !12, file: !11, line: 359, type: !1173, scopeLine: 359, flags: DIFlagProtected | DIFlagPrototyped, spFlags: DISPFlagOptimized)
!1173 = !DISubroutineType(types: !1174)
!1174 = !{null, !101, !75}
!1175 = !DISubprogram(name: "swap", linkageName: "_ZNSt3__18ios_base4swapERS0_", scope: !12, file: !11, line: 360, type: !1173, scopeLine: 360, flags: DIFlagProtected | DIFlagPrototyped, spFlags: DISPFlagOptimized)
!1176 = !DISubprogram(name: "set_rdbuf", linkageName: "_ZNSt3__18ios_base9set_rdbufEPv", scope: !12, file: !11, line: 363, type: !1162, scopeLine: 363, flags: DIFlagProtected | DIFlagPrototyped, spFlags: DISPFlagOptimized)
!1177 = !{!1178, !1179, !1180}
!1178 = !DIEnumerator(name: "erase_event", value: 0, isUnsigned: true)
!1179 = !DIEnumerator(name: "imbue_event", value: 1, isUnsigned: true)
!1180 = !DIEnumerator(name: "copyfmt_event", value: 2, isUnsigned: true)
!1181 = !DICompositeType(tag: DW_TAG_enumeration_type, name: "seekdir", scope: !12, file: !11, line: 269, baseType: !25, size: 32, elements: !1182, identifier: "_ZTSNSt3__18ios_base7seekdirE")
!1182 = !{!1183, !1184, !1185}
!1183 = !DIEnumerator(name: "beg", value: 0, isUnsigned: true)
!1184 = !DIEnumerator(name: "cur", value: 1, isUnsigned: true)
!1185 = !DIEnumerator(name: "end", value: 2, isUnsigned: true)
!1186 = !{!1187, !1192, !1194, !1195, !1199, !1201, !1208, !1214, !1221, !1226, !1230, !1234, !1238, !1243, !1248, !1252, !1256, !1260, !1264, !1269, !1271, !1275, !1280, !1284, !1288, !1292, !1296, !1301, !1305, !1307, !1311, !1313, !1320, !1324, !1329, !1333, !1337, !1341, !1345, !1347, !1351, !1357, !1361, !1365, !1371, !1376, !1380, !1381, !1384, !1387, !1391, !1394, !1397, !1400, !1402, !1404, !1406, !1408, !1410, !1412, !1414, !1416, !1418, !1420, !1422, !1424, !1426, !1428, !1430, !1435, !1438, !1441, !1444, !1446, !1451, !1453, !1457, !1461, !1463, !1465, !1469, !1473, !1477, !1479, !1483, !1488, !1492, !1496, !1498, !1500, !1502, !1504, !1506, !1508, !1512, !1516, !1521, !1522, !1526, !1541, !1545, !1549, !1554, !1559, !1565, !1571, !1575, !1577, !1581, !1586, !1639, !1640, !1641, !1647, !1649, !1653, !1657, !1661, !1663, !1667, !1671, !1675, !1686, !1688, !1692, !1696, !1700, !1702, !1706, !1710, !1714, !1716, !1718, !1720, !1724, !1728, !1733, !1737, !1743, !1747, !1751, !1753, !1755, !1757, !1761, !1765, !1769, !1771, !1773, !1777, !1781, !1783, !1787, !1791, !1793, !1797, !1799, !1801, !1805, !1807, !1809, !1811, !1813, !1815, !1817, !1819, !1821, !1823, !1825, !1827, !1829, !1831, !1836, !1841, !1846, !1851, !1853, !1856, !1858, !1860, !1862, !1864, !1866, !1868, !1870, !1872, !1874, !1878, !1882, !1886, !1888, !1892, !1896, !1909, !1910, !1911, !1912, !1913, !1918, !1920, !1924, !1928, !1932, !1936, !1938, !1942, !1946, !1950, !1954, !1958, !1962, !1964, !1966, !1970, !1975, !1979, !1983, !1987, !1991, !1995, !1999, !2003, !2007, !2009, !2011, !2015, !2017, !2021, !2025, !2030, !2032, !2034, !2036, !2040, !2044, !2048, !2050, !2054, !2056, !2058, !2060, !2062, !2066, !2070, !2072, !2078, !2083, !2087, !2091, !2096, !2101, !2105, !2109, !2113, !2117, !2119, !2121}
!1187 = !DIImportedEntity(tag: DW_TAG_imported_declaration, scope: !7, entity: !1188, file: !1191, line: 51)
!1188 = !DIDerivedType(tag: DW_TAG_typedef, name: "nullptr_t", scope: !14, file: !1189, line: 56, baseType: !1190)
!1189 = !DIFile(filename: "LLVM/llvm/build-release-clang-lldb-13.0.0/bin/../include/c++/v1/__nullptr", directory: "/Users/jryans/Projects")
!1190 = !DIBasicType(tag: DW_TAG_unspecified_type, name: "decltype(nullptr)")
!1191 = !DIFile(filename: "LLVM/llvm/build-release-clang-lldb-13.0.0/bin/../include/c++/v1/stddef.h", directory: "/Users/jryans/Projects")
!1192 = !DIImportedEntity(tag: DW_TAG_imported_declaration, scope: !13, entity: !60, file: !1193, line: 49)
!1193 = !DIFile(filename: "LLVM/llvm/build-release-clang-lldb-13.0.0/bin/../include/c++/v1/cstddef", directory: "/Users/jryans/Projects")
!1194 = !DIImportedEntity(tag: DW_TAG_imported_declaration, scope: !13, entity: !79, file: !1193, line: 50)
!1195 = !DIImportedEntity(tag: DW_TAG_imported_declaration, scope: !13, entity: !1196, file: !1193, line: 53)
!1196 = !DIDerivedType(tag: DW_TAG_typedef, name: "max_align_t", file: !1197, line: 16, baseType: !1198)
!1197 = !DIFile(filename: "LLVM/llvm/build-release-clang-lldb-13.0.0/lib/clang/13.0.0/include/__stddef_max_align_t.h", directory: "/Users/jryans/Projects")
!1198 = !DIBasicType(name: "long double", size: 128, encoding: DW_ATE_float)
!1199 = !DIImportedEntity(tag: DW_TAG_imported_declaration, scope: !13, entity: !79, file: !1200, line: 99)
!1200 = !DIFile(filename: "LLVM/llvm/build-release-clang-lldb-13.0.0/bin/../include/c++/v1/cstdlib", directory: "/Users/jryans/Projects")
!1201 = !DIImportedEntity(tag: DW_TAG_imported_declaration, scope: !13, entity: !1202, file: !1200, line: 100)
!1202 = !DIDerivedType(tag: DW_TAG_typedef, name: "div_t", file: !1203, line: 86, baseType: !1204)
!1203 = !DIFile(filename: "/Applications/Xcode.app/Contents/Developer/Platforms/MacOSX.platform/Developer/SDKs/MacOSX.sdk/usr/include/stdlib.h", directory: "")
!1204 = distinct !DICompositeType(tag: DW_TAG_structure_type, file: !1203, line: 83, size: 64, flags: DIFlagTypePassByValue, elements: !1205, identifier: "_ZTS5div_t")
!1205 = !{!1206, !1207}
!1206 = !DIDerivedType(tag: DW_TAG_member, name: "quot", scope: !1204, file: !1203, line: 84, baseType: !21, size: 32)
!1207 = !DIDerivedType(tag: DW_TAG_member, name: "rem", scope: !1204, file: !1203, line: 85, baseType: !21, size: 32, offset: 32)
!1208 = !DIImportedEntity(tag: DW_TAG_imported_declaration, scope: !13, entity: !1209, file: !1200, line: 101)
!1209 = !DIDerivedType(tag: DW_TAG_typedef, name: "ldiv_t", file: !1203, line: 91, baseType: !1210)
!1210 = distinct !DICompositeType(tag: DW_TAG_structure_type, file: !1203, line: 88, size: 128, flags: DIFlagTypePassByValue, elements: !1211, identifier: "_ZTS6ldiv_t")
!1211 = !{!1212, !1213}
!1212 = !DIDerivedType(tag: DW_TAG_member, name: "quot", scope: !1210, file: !1203, line: 89, baseType: !62, size: 64)
!1213 = !DIDerivedType(tag: DW_TAG_member, name: "rem", scope: !1210, file: !1203, line: 90, baseType: !62, size: 64, offset: 64)
!1214 = !DIImportedEntity(tag: DW_TAG_imported_declaration, scope: !13, entity: !1215, file: !1200, line: 103)
!1215 = !DIDerivedType(tag: DW_TAG_typedef, name: "lldiv_t", file: !1203, line: 97, baseType: !1216)
!1216 = distinct !DICompositeType(tag: DW_TAG_structure_type, file: !1203, line: 94, size: 128, flags: DIFlagTypePassByValue, elements: !1217, identifier: "_ZTS7lldiv_t")
!1217 = !{!1218, !1220}
!1218 = !DIDerivedType(tag: DW_TAG_member, name: "quot", scope: !1216, file: !1203, line: 95, baseType: !1219, size: 64)
!1219 = !DIBasicType(name: "long long int", size: 64, encoding: DW_ATE_signed)
!1220 = !DIDerivedType(tag: DW_TAG_member, name: "rem", scope: !1216, file: !1203, line: 96, baseType: !1219, size: 64, offset: 64)
!1221 = !DIImportedEntity(tag: DW_TAG_imported_declaration, scope: !13, entity: !1222, file: !1200, line: 105)
!1222 = !DISubprogram(name: "atof", scope: !1203, file: !1203, line: 134, type: !1223, flags: DIFlagPrototyped, spFlags: DISPFlagOptimized)
!1223 = !DISubroutineType(types: !1224)
!1224 = !{!1225, !148}
!1225 = !DIBasicType(name: "double", size: 64, encoding: DW_ATE_float)
!1226 = !DIImportedEntity(tag: DW_TAG_imported_declaration, scope: !13, entity: !1227, file: !1200, line: 106)
!1227 = !DISubprogram(name: "atoi", scope: !1203, file: !1203, line: 135, type: !1228, flags: DIFlagPrototyped, spFlags: DISPFlagOptimized)
!1228 = !DISubroutineType(types: !1229)
!1229 = !{!21, !148}
!1230 = !DIImportedEntity(tag: DW_TAG_imported_declaration, scope: !13, entity: !1231, file: !1200, line: 107)
!1231 = !DISubprogram(name: "atol", scope: !1203, file: !1203, line: 136, type: !1232, flags: DIFlagPrototyped, spFlags: DISPFlagOptimized)
!1232 = !DISubroutineType(types: !1233)
!1233 = !{!62, !148}
!1234 = !DIImportedEntity(tag: DW_TAG_imported_declaration, scope: !13, entity: !1235, file: !1200, line: 109)
!1235 = !DISubprogram(name: "atoll", scope: !1203, file: !1203, line: 139, type: !1236, flags: DIFlagPrototyped, spFlags: DISPFlagOptimized)
!1236 = !DISubroutineType(types: !1237)
!1237 = !{!1219, !148}
!1238 = !DIImportedEntity(tag: DW_TAG_imported_declaration, scope: !13, entity: !1239, file: !1200, line: 111)
!1239 = !DISubprogram(name: "strtod", linkageName: "\01_strtod", scope: !1203, file: !1203, line: 165, type: !1240, flags: DIFlagPrototyped, spFlags: DISPFlagOptimized)
!1240 = !DISubroutineType(types: !1241)
!1241 = !{!1225, !148, !1242}
!1242 = !DIDerivedType(tag: DW_TAG_pointer_type, baseType: !205, size: 64)
!1243 = !DIImportedEntity(tag: DW_TAG_imported_declaration, scope: !13, entity: !1244, file: !1200, line: 112)
!1244 = !DISubprogram(name: "strtof", linkageName: "\01_strtof", scope: !1203, file: !1203, line: 166, type: !1245, flags: DIFlagPrototyped, spFlags: DISPFlagOptimized)
!1245 = !DISubroutineType(types: !1246)
!1246 = !{!1247, !148, !1242}
!1247 = !DIBasicType(name: "float", size: 32, encoding: DW_ATE_float)
!1248 = !DIImportedEntity(tag: DW_TAG_imported_declaration, scope: !13, entity: !1249, file: !1200, line: 113)
!1249 = !DISubprogram(name: "strtold", scope: !1203, file: !1203, line: 169, type: !1250, flags: DIFlagPrototyped, spFlags: DISPFlagOptimized)
!1250 = !DISubroutineType(types: !1251)
!1251 = !{!1198, !148, !1242}
!1252 = !DIImportedEntity(tag: DW_TAG_imported_declaration, scope: !13, entity: !1253, file: !1200, line: 114)
!1253 = !DISubprogram(name: "strtol", scope: !1203, file: !1203, line: 167, type: !1254, flags: DIFlagPrototyped, spFlags: DISPFlagOptimized)
!1254 = !DISubroutineType(types: !1255)
!1255 = !{!62, !148, !1242, !21}
!1256 = !DIImportedEntity(tag: DW_TAG_imported_declaration, scope: !13, entity: !1257, file: !1200, line: 116)
!1257 = !DISubprogram(name: "strtoll", scope: !1203, file: !1203, line: 172, type: !1258, flags: DIFlagPrototyped, spFlags: DISPFlagOptimized)
!1258 = !DISubroutineType(types: !1259)
!1259 = !{!1219, !148, !1242, !21}
!1260 = !DIImportedEntity(tag: DW_TAG_imported_declaration, scope: !13, entity: !1261, file: !1200, line: 118)
!1261 = !DISubprogram(name: "strtoul", scope: !1203, file: !1203, line: 175, type: !1262, flags: DIFlagPrototyped, spFlags: DISPFlagOptimized)
!1262 = !DISubroutineType(types: !1263)
!1263 = !{!80, !148, !1242, !21}
!1264 = !DIImportedEntity(tag: DW_TAG_imported_declaration, scope: !13, entity: !1265, file: !1200, line: 120)
!1265 = !DISubprogram(name: "strtoull", scope: !1203, file: !1203, line: 178, type: !1266, flags: DIFlagPrototyped, spFlags: DISPFlagOptimized)
!1266 = !DISubroutineType(types: !1267)
!1267 = !{!1268, !148, !1242, !21}
!1268 = !DIBasicType(name: "long long unsigned int", size: 64, encoding: DW_ATE_unsigned)
!1269 = !DIImportedEntity(tag: DW_TAG_imported_declaration, scope: !13, entity: !1270, file: !1200, line: 122)
!1270 = !DISubprogram(name: "rand", scope: !1203, file: !1203, line: 162, type: !19, flags: DIFlagPrototyped, spFlags: DISPFlagOptimized)
!1271 = !DIImportedEntity(tag: DW_TAG_imported_declaration, scope: !13, entity: !1272, file: !1200, line: 123)
!1272 = !DISubprogram(name: "srand", scope: !1203, file: !1203, line: 164, type: !1273, flags: DIFlagPrototyped, spFlags: DISPFlagOptimized)
!1273 = !DISubroutineType(types: !1274)
!1274 = !{null, !25}
!1275 = !DIImportedEntity(tag: DW_TAG_imported_declaration, scope: !13, entity: !1276, file: !1200, line: 124)
!1276 = !DISubprogram(name: "calloc", scope: !1277, file: !1277, line: 41, type: !1278, flags: DIFlagPrototyped, spFlags: DISPFlagOptimized)
!1277 = !DIFile(filename: "/Applications/Xcode.app/Contents/Developer/Platforms/MacOSX.platform/Developer/SDKs/MacOSX.sdk/usr/include/malloc/_malloc.h", directory: "")
!1278 = !DISubroutineType(types: !1279)
!1279 = !{!67, !79, !79}
!1280 = !DIImportedEntity(tag: DW_TAG_imported_declaration, scope: !13, entity: !1281, file: !1200, line: 125)
!1281 = !DISubprogram(name: "free", scope: !1277, file: !1277, line: 42, type: !1282, flags: DIFlagPrototyped, spFlags: DISPFlagOptimized)
!1282 = !DISubroutineType(types: !1283)
!1283 = !{null, !67}
!1284 = !DIImportedEntity(tag: DW_TAG_imported_declaration, scope: !13, entity: !1285, file: !1200, line: 126)
!1285 = !DISubprogram(name: "malloc", scope: !1277, file: !1277, line: 40, type: !1286, flags: DIFlagPrototyped, spFlags: DISPFlagOptimized)
!1286 = !DISubroutineType(types: !1287)
!1287 = !{!67, !79}
!1288 = !DIImportedEntity(tag: DW_TAG_imported_declaration, scope: !13, entity: !1289, file: !1200, line: 127)
!1289 = !DISubprogram(name: "realloc", scope: !1277, file: !1277, line: 43, type: !1290, flags: DIFlagPrototyped, spFlags: DISPFlagOptimized)
!1290 = !DISubroutineType(types: !1291)
!1291 = !{!67, !67, !79}
!1292 = !DIImportedEntity(tag: DW_TAG_imported_declaration, scope: !13, entity: !1293, file: !1200, line: 128)
!1293 = !DISubprogram(name: "abort", scope: !1203, file: !1203, line: 131, type: !1294, flags: DIFlagPrototyped | DIFlagNoReturn, spFlags: DISPFlagOptimized)
!1294 = !DISubroutineType(types: !1295)
!1295 = !{null}
!1296 = !DIImportedEntity(tag: DW_TAG_imported_declaration, scope: !13, entity: !1297, file: !1200, line: 129)
!1297 = !DISubprogram(name: "atexit", scope: !1203, file: !1203, line: 133, type: !1298, flags: DIFlagPrototyped, spFlags: DISPFlagOptimized)
!1298 = !DISubroutineType(types: !1299)
!1299 = !{!21, !1300}
!1300 = !DIDerivedType(tag: DW_TAG_pointer_type, baseType: !1294, size: 64)
!1301 = !DIImportedEntity(tag: DW_TAG_imported_declaration, scope: !13, entity: !1302, file: !1200, line: 130)
!1302 = !DISubprogram(name: "exit", scope: !1203, file: !1203, line: 145, type: !1303, flags: DIFlagPrototyped | DIFlagNoReturn, spFlags: DISPFlagOptimized)
!1303 = !DISubroutineType(types: !1304)
!1304 = !{null, !21}
!1305 = !DIImportedEntity(tag: DW_TAG_imported_declaration, scope: !13, entity: !1306, file: !1200, line: 131)
!1306 = !DISubprogram(name: "_Exit", scope: !1203, file: !1203, line: 191, type: !1303, flags: DIFlagPrototyped | DIFlagNoReturn, spFlags: DISPFlagOptimized)
!1307 = !DIImportedEntity(tag: DW_TAG_imported_declaration, scope: !13, entity: !1308, file: !1200, line: 133)
!1308 = !DISubprogram(name: "getenv", scope: !1203, file: !1203, line: 147, type: !1309, flags: DIFlagPrototyped, spFlags: DISPFlagOptimized)
!1309 = !DISubroutineType(types: !1310)
!1310 = !{!205, !148}
!1311 = !DIImportedEntity(tag: DW_TAG_imported_declaration, scope: !13, entity: !1312, file: !1200, line: 134)
!1312 = !DISubprogram(name: "system", linkageName: "\01_system", scope: !1203, file: !1203, line: 184, type: !1228, flags: DIFlagPrototyped, spFlags: DISPFlagOptimized)
!1313 = !DIImportedEntity(tag: DW_TAG_imported_declaration, scope: !13, entity: !1314, file: !1200, line: 136)
!1314 = !DISubprogram(name: "bsearch", scope: !1203, file: !1203, line: 141, type: !1315, flags: DIFlagPrototyped, spFlags: DISPFlagOptimized)
!1315 = !DISubroutineType(types: !1316)
!1316 = !{!67, !225, !225, !79, !79, !1317}
!1317 = !DIDerivedType(tag: DW_TAG_pointer_type, baseType: !1318, size: 64)
!1318 = !DISubroutineType(types: !1319)
!1319 = !{!21, !225, !225}
!1320 = !DIImportedEntity(tag: DW_TAG_imported_declaration, scope: !13, entity: !1321, file: !1200, line: 137)
!1321 = !DISubprogram(name: "qsort", scope: !1203, file: !1203, line: 160, type: !1322, flags: DIFlagPrototyped, spFlags: DISPFlagOptimized)
!1322 = !DISubroutineType(types: !1323)
!1323 = !{null, !67, !79, !79, !1317}
!1324 = !DIImportedEntity(tag: DW_TAG_imported_declaration, scope: !13, entity: !1325, file: !1200, line: 138)
!1325 = !DISubprogram(name: "abs", linkageName: "_Z3abse", scope: !1326, file: !1326, line: 127, type: !1327, flags: DIFlagPrototyped, spFlags: DISPFlagOptimized)
!1326 = !DIFile(filename: "LLVM/llvm/build-release-clang-lldb-13.0.0/bin/../include/c++/v1/stdlib.h", directory: "/Users/jryans/Projects")
!1327 = !DISubroutineType(types: !1328)
!1328 = !{!1198, !1198}
!1329 = !DIImportedEntity(tag: DW_TAG_imported_declaration, scope: !13, entity: !1330, file: !1200, line: 139)
!1330 = !DISubprogram(name: "labs", scope: !1203, file: !1203, line: 148, type: !1331, flags: DIFlagPrototyped, spFlags: DISPFlagOptimized)
!1331 = !DISubroutineType(types: !1332)
!1332 = !{!62, !62}
!1333 = !DIImportedEntity(tag: DW_TAG_imported_declaration, scope: !13, entity: !1334, file: !1200, line: 141)
!1334 = !DISubprogram(name: "llabs", scope: !1203, file: !1203, line: 152, type: !1335, flags: DIFlagPrototyped, spFlags: DISPFlagOptimized)
!1335 = !DISubroutineType(types: !1336)
!1336 = !{!1219, !1219}
!1337 = !DIImportedEntity(tag: DW_TAG_imported_declaration, scope: !13, entity: !1338, file: !1200, line: 143)
!1338 = !DISubprogram(name: "div", linkageName: "_Z3divxx", scope: !1326, file: !1326, line: 146, type: !1339, flags: DIFlagPrototyped, spFlags: DISPFlagOptimized)
!1339 = !DISubroutineType(types: !1340)
!1340 = !{!1215, !1219, !1219}
!1341 = !DIImportedEntity(tag: DW_TAG_imported_declaration, scope: !13, entity: !1342, file: !1200, line: 144)
!1342 = !DISubprogram(name: "ldiv", scope: !1203, file: !1203, line: 149, type: !1343, flags: DIFlagPrototyped, spFlags: DISPFlagOptimized)
!1343 = !DISubroutineType(types: !1344)
!1344 = !{!1209, !62, !62}
!1345 = !DIImportedEntity(tag: DW_TAG_imported_declaration, scope: !13, entity: !1346, file: !1200, line: 146)
!1346 = !DISubprogram(name: "lldiv", scope: !1203, file: !1203, line: 153, type: !1339, flags: DIFlagPrototyped, spFlags: DISPFlagOptimized)
!1347 = !DIImportedEntity(tag: DW_TAG_imported_declaration, scope: !13, entity: !1348, file: !1200, line: 148)
!1348 = !DISubprogram(name: "mblen", scope: !1203, file: !1203, line: 156, type: !1349, flags: DIFlagPrototyped, spFlags: DISPFlagOptimized)
!1349 = !DISubroutineType(types: !1350)
!1350 = !{!21, !148, !79}
!1351 = !DIImportedEntity(tag: DW_TAG_imported_declaration, scope: !13, entity: !1352, file: !1200, line: 149)
!1352 = !DISubprogram(name: "mbtowc", scope: !1203, file: !1203, line: 158, type: !1353, flags: DIFlagPrototyped, spFlags: DISPFlagOptimized)
!1353 = !DISubroutineType(types: !1354)
!1354 = !{!21, !1355, !148, !79}
!1355 = !DIDerivedType(tag: DW_TAG_pointer_type, baseType: !1356, size: 64)
!1356 = !DIBasicType(name: "wchar_t", size: 32, encoding: DW_ATE_signed)
!1357 = !DIImportedEntity(tag: DW_TAG_imported_declaration, scope: !13, entity: !1358, file: !1200, line: 150)
!1358 = !DISubprogram(name: "wctomb", scope: !1203, file: !1203, line: 188, type: !1359, flags: DIFlagPrototyped, spFlags: DISPFlagOptimized)
!1359 = !DISubroutineType(types: !1360)
!1360 = !{!21, !205, !1356}
!1361 = !DIImportedEntity(tag: DW_TAG_imported_declaration, scope: !13, entity: !1362, file: !1200, line: 151)
!1362 = !DISubprogram(name: "mbstowcs", scope: !1203, file: !1203, line: 157, type: !1363, flags: DIFlagPrototyped, spFlags: DISPFlagOptimized)
!1363 = !DISubroutineType(types: !1364)
!1364 = !{!79, !1355, !148, !79}
!1365 = !DIImportedEntity(tag: DW_TAG_imported_declaration, scope: !13, entity: !1366, file: !1200, line: 152)
!1366 = !DISubprogram(name: "wcstombs", scope: !1203, file: !1203, line: 187, type: !1367, flags: DIFlagPrototyped, spFlags: DISPFlagOptimized)
!1367 = !DISubroutineType(types: !1368)
!1368 = !{!79, !205, !1369, !79}
!1369 = !DIDerivedType(tag: DW_TAG_pointer_type, baseType: !1370, size: 64)
!1370 = !DIDerivedType(tag: DW_TAG_const_type, baseType: !1356)
!1371 = !DIImportedEntity(tag: DW_TAG_imported_declaration, scope: !13, entity: !1372, file: !1375, line: 152)
!1372 = !DIDerivedType(tag: DW_TAG_typedef, name: "int8_t", file: !1373, line: 30, baseType: !1374)
!1373 = !DIFile(filename: "/Applications/Xcode.app/Contents/Developer/Platforms/MacOSX.platform/Developer/SDKs/MacOSX.sdk/usr/include/sys/_types/_int8_t.h", directory: "")
!1374 = !DIBasicType(name: "signed char", size: 8, encoding: DW_ATE_signed_char)
!1375 = !DIFile(filename: "LLVM/llvm/build-release-clang-lldb-13.0.0/bin/../include/c++/v1/cstdint", directory: "/Users/jryans/Projects")
!1376 = !DIImportedEntity(tag: DW_TAG_imported_declaration, scope: !13, entity: !1377, file: !1375, line: 153)
!1377 = !DIDerivedType(tag: DW_TAG_typedef, name: "int16_t", file: !1378, line: 30, baseType: !1379)
!1378 = !DIFile(filename: "/Applications/Xcode.app/Contents/Developer/Platforms/MacOSX.platform/Developer/SDKs/MacOSX.sdk/usr/include/sys/_types/_int16_t.h", directory: "")
!1379 = !DIBasicType(name: "short", size: 16, encoding: DW_ATE_signed)
!1380 = !DIImportedEntity(tag: DW_TAG_imported_declaration, scope: !13, entity: !1092, file: !1375, line: 154)
!1381 = !DIImportedEntity(tag: DW_TAG_imported_declaration, scope: !13, entity: !1382, file: !1375, line: 155)
!1382 = !DIDerivedType(tag: DW_TAG_typedef, name: "int64_t", file: !1383, line: 30, baseType: !1219)
!1383 = !DIFile(filename: "/Applications/Xcode.app/Contents/Developer/Platforms/MacOSX.platform/Developer/SDKs/MacOSX.sdk/usr/include/sys/_types/_int64_t.h", directory: "")
!1384 = !DIImportedEntity(tag: DW_TAG_imported_declaration, scope: !13, entity: !1385, file: !1375, line: 157)
!1385 = !DIDerivedType(tag: DW_TAG_typedef, name: "uint8_t", file: !1386, line: 31, baseType: !272)
!1386 = !DIFile(filename: "/Applications/Xcode.app/Contents/Developer/Platforms/MacOSX.platform/Developer/SDKs/MacOSX.sdk/usr/include/_types/_uint8_t.h", directory: "")
!1387 = !DIImportedEntity(tag: DW_TAG_imported_declaration, scope: !13, entity: !1388, file: !1375, line: 158)
!1388 = !DIDerivedType(tag: DW_TAG_typedef, name: "uint16_t", file: !1389, line: 31, baseType: !1390)
!1389 = !DIFile(filename: "/Applications/Xcode.app/Contents/Developer/Platforms/MacOSX.platform/Developer/SDKs/MacOSX.sdk/usr/include/_types/_uint16_t.h", directory: "")
!1390 = !DIBasicType(name: "unsigned short", size: 16, encoding: DW_ATE_unsigned)
!1391 = !DIImportedEntity(tag: DW_TAG_imported_declaration, scope: !13, entity: !1392, file: !1375, line: 159)
!1392 = !DIDerivedType(tag: DW_TAG_typedef, name: "uint32_t", file: !1393, line: 31, baseType: !25)
!1393 = !DIFile(filename: "/Applications/Xcode.app/Contents/Developer/Platforms/MacOSX.platform/Developer/SDKs/MacOSX.sdk/usr/include/_types/_uint32_t.h", directory: "")
!1394 = !DIImportedEntity(tag: DW_TAG_imported_declaration, scope: !13, entity: !1395, file: !1375, line: 160)
!1395 = !DIDerivedType(tag: DW_TAG_typedef, name: "uint64_t", file: !1396, line: 31, baseType: !1268)
!1396 = !DIFile(filename: "/Applications/Xcode.app/Contents/Developer/Platforms/MacOSX.platform/Developer/SDKs/MacOSX.sdk/usr/include/_types/_uint64_t.h", directory: "")
!1397 = !DIImportedEntity(tag: DW_TAG_imported_declaration, scope: !13, entity: !1398, file: !1375, line: 162)
!1398 = !DIDerivedType(tag: DW_TAG_typedef, name: "int_least8_t", file: !1399, line: 29, baseType: !1372)
!1399 = !DIFile(filename: "/Applications/Xcode.app/Contents/Developer/Platforms/MacOSX.platform/Developer/SDKs/MacOSX.sdk/usr/include/stdint.h", directory: "")
!1400 = !DIImportedEntity(tag: DW_TAG_imported_declaration, scope: !13, entity: !1401, file: !1375, line: 163)
!1401 = !DIDerivedType(tag: DW_TAG_typedef, name: "int_least16_t", file: !1399, line: 30, baseType: !1377)
!1402 = !DIImportedEntity(tag: DW_TAG_imported_declaration, scope: !13, entity: !1403, file: !1375, line: 164)
!1403 = !DIDerivedType(tag: DW_TAG_typedef, name: "int_least32_t", file: !1399, line: 31, baseType: !1092)
!1404 = !DIImportedEntity(tag: DW_TAG_imported_declaration, scope: !13, entity: !1405, file: !1375, line: 165)
!1405 = !DIDerivedType(tag: DW_TAG_typedef, name: "int_least64_t", file: !1399, line: 32, baseType: !1382)
!1406 = !DIImportedEntity(tag: DW_TAG_imported_declaration, scope: !13, entity: !1407, file: !1375, line: 167)
!1407 = !DIDerivedType(tag: DW_TAG_typedef, name: "uint_least8_t", file: !1399, line: 33, baseType: !1385)
!1408 = !DIImportedEntity(tag: DW_TAG_imported_declaration, scope: !13, entity: !1409, file: !1375, line: 168)
!1409 = !DIDerivedType(tag: DW_TAG_typedef, name: "uint_least16_t", file: !1399, line: 34, baseType: !1388)
!1410 = !DIImportedEntity(tag: DW_TAG_imported_declaration, scope: !13, entity: !1411, file: !1375, line: 169)
!1411 = !DIDerivedType(tag: DW_TAG_typedef, name: "uint_least32_t", file: !1399, line: 35, baseType: !1392)
!1412 = !DIImportedEntity(tag: DW_TAG_imported_declaration, scope: !13, entity: !1413, file: !1375, line: 170)
!1413 = !DIDerivedType(tag: DW_TAG_typedef, name: "uint_least64_t", file: !1399, line: 36, baseType: !1395)
!1414 = !DIImportedEntity(tag: DW_TAG_imported_declaration, scope: !13, entity: !1415, file: !1375, line: 172)
!1415 = !DIDerivedType(tag: DW_TAG_typedef, name: "int_fast8_t", file: !1399, line: 40, baseType: !1372)
!1416 = !DIImportedEntity(tag: DW_TAG_imported_declaration, scope: !13, entity: !1417, file: !1375, line: 173)
!1417 = !DIDerivedType(tag: DW_TAG_typedef, name: "int_fast16_t", file: !1399, line: 41, baseType: !1377)
!1418 = !DIImportedEntity(tag: DW_TAG_imported_declaration, scope: !13, entity: !1419, file: !1375, line: 174)
!1419 = !DIDerivedType(tag: DW_TAG_typedef, name: "int_fast32_t", file: !1399, line: 42, baseType: !1092)
!1420 = !DIImportedEntity(tag: DW_TAG_imported_declaration, scope: !13, entity: !1421, file: !1375, line: 175)
!1421 = !DIDerivedType(tag: DW_TAG_typedef, name: "int_fast64_t", file: !1399, line: 43, baseType: !1382)
!1422 = !DIImportedEntity(tag: DW_TAG_imported_declaration, scope: !13, entity: !1423, file: !1375, line: 177)
!1423 = !DIDerivedType(tag: DW_TAG_typedef, name: "uint_fast8_t", file: !1399, line: 44, baseType: !1385)
!1424 = !DIImportedEntity(tag: DW_TAG_imported_declaration, scope: !13, entity: !1425, file: !1375, line: 178)
!1425 = !DIDerivedType(tag: DW_TAG_typedef, name: "uint_fast16_t", file: !1399, line: 45, baseType: !1388)
!1426 = !DIImportedEntity(tag: DW_TAG_imported_declaration, scope: !13, entity: !1427, file: !1375, line: 179)
!1427 = !DIDerivedType(tag: DW_TAG_typedef, name: "uint_fast32_t", file: !1399, line: 46, baseType: !1392)
!1428 = !DIImportedEntity(tag: DW_TAG_imported_declaration, scope: !13, entity: !1429, file: !1375, line: 180)
!1429 = !DIDerivedType(tag: DW_TAG_typedef, name: "uint_fast64_t", file: !1399, line: 47, baseType: !1395)
!1430 = !DIImportedEntity(tag: DW_TAG_imported_declaration, scope: !13, entity: !1431, file: !1375, line: 182)
!1431 = !DIDerivedType(tag: DW_TAG_typedef, name: "intptr_t", file: !1432, line: 32, baseType: !1433)
!1432 = !DIFile(filename: "/Applications/Xcode.app/Contents/Developer/Platforms/MacOSX.platform/Developer/SDKs/MacOSX.sdk/usr/include/sys/_types/_intptr_t.h", directory: "")
!1433 = !DIDerivedType(tag: DW_TAG_typedef, name: "__darwin_intptr_t", file: !1434, line: 51, baseType: !62)
!1434 = !DIFile(filename: "/Applications/Xcode.app/Contents/Developer/Platforms/MacOSX.platform/Developer/SDKs/MacOSX.sdk/usr/include/i386/_types.h", directory: "")
!1435 = !DIImportedEntity(tag: DW_TAG_imported_declaration, scope: !13, entity: !1436, file: !1375, line: 183)
!1436 = !DIDerivedType(tag: DW_TAG_typedef, name: "uintptr_t", file: !1437, line: 34, baseType: !80)
!1437 = !DIFile(filename: "/Applications/Xcode.app/Contents/Developer/Platforms/MacOSX.platform/Developer/SDKs/MacOSX.sdk/usr/include/sys/_types/_uintptr_t.h", directory: "")
!1438 = !DIImportedEntity(tag: DW_TAG_imported_declaration, scope: !13, entity: !1439, file: !1375, line: 185)
!1439 = !DIDerivedType(tag: DW_TAG_typedef, name: "intmax_t", file: !1440, line: 32, baseType: !62)
!1440 = !DIFile(filename: "/Applications/Xcode.app/Contents/Developer/Platforms/MacOSX.platform/Developer/SDKs/MacOSX.sdk/usr/include/_types/_intmax_t.h", directory: "")
!1441 = !DIImportedEntity(tag: DW_TAG_imported_declaration, scope: !13, entity: !1442, file: !1375, line: 186)
!1442 = !DIDerivedType(tag: DW_TAG_typedef, name: "uintmax_t", file: !1443, line: 32, baseType: !80)
!1443 = !DIFile(filename: "/Applications/Xcode.app/Contents/Developer/Platforms/MacOSX.platform/Developer/SDKs/MacOSX.sdk/usr/include/_types/_uintmax_t.h", directory: "")
!1444 = !DIImportedEntity(tag: DW_TAG_imported_declaration, scope: !13, entity: !79, file: !1445, line: 68)
!1445 = !DIFile(filename: "LLVM/llvm/build-release-clang-lldb-13.0.0/bin/../include/c++/v1/cstring", directory: "/Users/jryans/Projects")
!1446 = !DIImportedEntity(tag: DW_TAG_imported_declaration, scope: !13, entity: !1447, file: !1445, line: 69)
!1447 = !DISubprogram(name: "memcpy", scope: !1448, file: !1448, line: 72, type: !1449, flags: DIFlagPrototyped, spFlags: DISPFlagOptimized)
!1448 = !DIFile(filename: "/Applications/Xcode.app/Contents/Developer/Platforms/MacOSX.platform/Developer/SDKs/MacOSX.sdk/usr/include/string.h", directory: "")
!1449 = !DISubroutineType(types: !1450)
!1450 = !{!67, !67, !225, !79}
!1451 = !DIImportedEntity(tag: DW_TAG_imported_declaration, scope: !13, entity: !1452, file: !1445, line: 70)
!1452 = !DISubprogram(name: "memmove", scope: !1448, file: !1448, line: 73, type: !1449, flags: DIFlagPrototyped, spFlags: DISPFlagOptimized)
!1453 = !DIImportedEntity(tag: DW_TAG_imported_declaration, scope: !13, entity: !1454, file: !1445, line: 71)
!1454 = !DISubprogram(name: "strcpy", scope: !1448, file: !1448, line: 79, type: !1455, flags: DIFlagPrototyped, spFlags: DISPFlagOptimized)
!1455 = !DISubroutineType(types: !1456)
!1456 = !{!205, !205, !148}
!1457 = !DIImportedEntity(tag: DW_TAG_imported_declaration, scope: !13, entity: !1458, file: !1445, line: 72)
!1458 = !DISubprogram(name: "strncpy", scope: !1448, file: !1448, line: 85, type: !1459, flags: DIFlagPrototyped, spFlags: DISPFlagOptimized)
!1459 = !DISubroutineType(types: !1460)
!1460 = !{!205, !205, !148, !79}
!1461 = !DIImportedEntity(tag: DW_TAG_imported_declaration, scope: !13, entity: !1462, file: !1445, line: 73)
!1462 = !DISubprogram(name: "strcat", scope: !1448, file: !1448, line: 75, type: !1455, flags: DIFlagPrototyped, spFlags: DISPFlagOptimized)
!1463 = !DIImportedEntity(tag: DW_TAG_imported_declaration, scope: !13, entity: !1464, file: !1445, line: 74)
!1464 = !DISubprogram(name: "strncat", scope: !1448, file: !1448, line: 83, type: !1459, flags: DIFlagPrototyped, spFlags: DISPFlagOptimized)
!1465 = !DIImportedEntity(tag: DW_TAG_imported_declaration, scope: !13, entity: !1466, file: !1445, line: 75)
!1466 = !DISubprogram(name: "memcmp", scope: !1448, file: !1448, line: 71, type: !1467, flags: DIFlagPrototyped, spFlags: DISPFlagOptimized)
!1467 = !DISubroutineType(types: !1468)
!1468 = !{!21, !225, !225, !79}
!1469 = !DIImportedEntity(tag: DW_TAG_imported_declaration, scope: !13, entity: !1470, file: !1445, line: 76)
!1470 = !DISubprogram(name: "strcmp", scope: !1448, file: !1448, line: 77, type: !1471, flags: DIFlagPrototyped, spFlags: DISPFlagOptimized)
!1471 = !DISubroutineType(types: !1472)
!1472 = !{!21, !148, !148}
!1473 = !DIImportedEntity(tag: DW_TAG_imported_declaration, scope: !13, entity: !1474, file: !1445, line: 77)
!1474 = !DISubprogram(name: "strncmp", scope: !1448, file: !1448, line: 84, type: !1475, flags: DIFlagPrototyped, spFlags: DISPFlagOptimized)
!1475 = !DISubroutineType(types: !1476)
!1476 = !{!21, !148, !148, !79}
!1477 = !DIImportedEntity(tag: DW_TAG_imported_declaration, scope: !13, entity: !1478, file: !1445, line: 78)
!1478 = !DISubprogram(name: "strcoll", scope: !1448, file: !1448, line: 78, type: !1471, flags: DIFlagPrototyped, spFlags: DISPFlagOptimized)
!1479 = !DIImportedEntity(tag: DW_TAG_imported_declaration, scope: !13, entity: !1480, file: !1445, line: 79)
!1480 = !DISubprogram(name: "strxfrm", scope: !1448, file: !1448, line: 91, type: !1481, flags: DIFlagPrototyped, spFlags: DISPFlagOptimized)
!1481 = !DISubroutineType(types: !1482)
!1482 = !{!79, !205, !148, !79}
!1483 = !DIImportedEntity(tag: DW_TAG_imported_declaration, scope: !13, entity: !1484, file: !1445, line: 80)
!1484 = !DISubprogram(name: "memchr", linkageName: "_Z6memchrUa9enable_ifILb1EEPvim", scope: !1485, file: !1485, line: 98, type: !1486, flags: DIFlagPrototyped, spFlags: DISPFlagOptimized)
!1485 = !DIFile(filename: "LLVM/llvm/build-release-clang-lldb-13.0.0/bin/../include/c++/v1/string.h", directory: "/Users/jryans/Projects")
!1486 = !DISubroutineType(types: !1487)
!1487 = !{!67, !67, !21, !79}
!1488 = !DIImportedEntity(tag: DW_TAG_imported_declaration, scope: !13, entity: !1489, file: !1445, line: 81)
!1489 = !DISubprogram(name: "strchr", linkageName: "_Z6strchrUa9enable_ifILb1EEPci", scope: !1485, file: !1485, line: 77, type: !1490, flags: DIFlagPrototyped, spFlags: DISPFlagOptimized)
!1490 = !DISubroutineType(types: !1491)
!1491 = !{!205, !205, !21}
!1492 = !DIImportedEntity(tag: DW_TAG_imported_declaration, scope: !13, entity: !1493, file: !1445, line: 82)
!1493 = !DISubprogram(name: "strcspn", scope: !1448, file: !1448, line: 80, type: !1494, flags: DIFlagPrototyped, spFlags: DISPFlagOptimized)
!1494 = !DISubroutineType(types: !1495)
!1495 = !{!79, !148, !148}
!1496 = !DIImportedEntity(tag: DW_TAG_imported_declaration, scope: !13, entity: !1497, file: !1445, line: 83)
!1497 = !DISubprogram(name: "strpbrk", linkageName: "_Z7strpbrkUa9enable_ifILb1EEPcPKc", scope: !1485, file: !1485, line: 84, type: !1455, flags: DIFlagPrototyped, spFlags: DISPFlagOptimized)
!1498 = !DIImportedEntity(tag: DW_TAG_imported_declaration, scope: !13, entity: !1499, file: !1445, line: 84)
!1499 = !DISubprogram(name: "strrchr", linkageName: "_Z7strrchrUa9enable_ifILb1EEPci", scope: !1485, file: !1485, line: 91, type: !1490, flags: DIFlagPrototyped, spFlags: DISPFlagOptimized)
!1500 = !DIImportedEntity(tag: DW_TAG_imported_declaration, scope: !13, entity: !1501, file: !1445, line: 85)
!1501 = !DISubprogram(name: "strspn", scope: !1448, file: !1448, line: 88, type: !1494, flags: DIFlagPrototyped, spFlags: DISPFlagOptimized)
!1502 = !DIImportedEntity(tag: DW_TAG_imported_declaration, scope: !13, entity: !1503, file: !1445, line: 86)
!1503 = !DISubprogram(name: "strstr", linkageName: "_Z6strstrUa9enable_ifILb1EEPcPKc", scope: !1485, file: !1485, line: 105, type: !1455, flags: DIFlagPrototyped, spFlags: DISPFlagOptimized)
!1504 = !DIImportedEntity(tag: DW_TAG_imported_declaration, scope: !13, entity: !1505, file: !1445, line: 88)
!1505 = !DISubprogram(name: "strtok", scope: !1448, file: !1448, line: 90, type: !1455, flags: DIFlagPrototyped, spFlags: DISPFlagOptimized)
!1506 = !DIImportedEntity(tag: DW_TAG_imported_declaration, scope: !13, entity: !1507, file: !1445, line: 90)
!1507 = !DISubprogram(name: "memset", scope: !1448, file: !1448, line: 74, type: !1486, flags: DIFlagPrototyped, spFlags: DISPFlagOptimized)
!1508 = !DIImportedEntity(tag: DW_TAG_imported_declaration, scope: !13, entity: !1509, file: !1445, line: 91)
!1509 = !DISubprogram(name: "strerror", linkageName: "\01_strerror", scope: !1448, file: !1448, line: 81, type: !1510, flags: DIFlagPrototyped, spFlags: DISPFlagOptimized)
!1510 = !DISubroutineType(types: !1511)
!1511 = !{!205, !21}
!1512 = !DIImportedEntity(tag: DW_TAG_imported_declaration, scope: !13, entity: !1513, file: !1445, line: 92)
!1513 = !DISubprogram(name: "strlen", scope: !1448, file: !1448, line: 82, type: !1514, flags: DIFlagPrototyped, spFlags: DISPFlagOptimized)
!1514 = !DISubroutineType(types: !1515)
!1515 = !{!79, !148}
!1516 = !DIImportedEntity(tag: DW_TAG_imported_declaration, scope: !13, entity: !1517, file: !1520, line: 71)
!1517 = !DIDerivedType(tag: DW_TAG_typedef, name: "clock_t", file: !1518, line: 31, baseType: !1519)
!1518 = !DIFile(filename: "/Applications/Xcode.app/Contents/Developer/Platforms/MacOSX.platform/Developer/SDKs/MacOSX.sdk/usr/include/sys/_types/_clock_t.h", directory: "")
!1519 = !DIDerivedType(tag: DW_TAG_typedef, name: "__darwin_clock_t", file: !1434, line: 119, baseType: !80)
!1520 = !DIFile(filename: "LLVM/llvm/build-release-clang-lldb-13.0.0/bin/../include/c++/v1/ctime", directory: "/Users/jryans/Projects")
!1521 = !DIImportedEntity(tag: DW_TAG_imported_declaration, scope: !13, entity: !79, file: !1520, line: 72)
!1522 = !DIImportedEntity(tag: DW_TAG_imported_declaration, scope: !13, entity: !1523, file: !1520, line: 73)
!1523 = !DIDerivedType(tag: DW_TAG_typedef, name: "time_t", file: !1524, line: 31, baseType: !1525)
!1524 = !DIFile(filename: "/Applications/Xcode.app/Contents/Developer/Platforms/MacOSX.platform/Developer/SDKs/MacOSX.sdk/usr/include/sys/_types/_time_t.h", directory: "")
!1525 = !DIDerivedType(tag: DW_TAG_typedef, name: "__darwin_time_t", file: !1434, line: 122, baseType: !62)
!1526 = !DIImportedEntity(tag: DW_TAG_imported_declaration, scope: !13, entity: !1527, file: !1520, line: 74)
!1527 = distinct !DICompositeType(tag: DW_TAG_structure_type, name: "tm", file: !1528, line: 75, size: 448, flags: DIFlagTypePassByValue, elements: !1529, identifier: "_ZTS2tm")
!1528 = !DIFile(filename: "/Applications/Xcode.app/Contents/Developer/Platforms/MacOSX.platform/Developer/SDKs/MacOSX.sdk/usr/include/time.h", directory: "")
!1529 = !{!1530, !1531, !1532, !1533, !1534, !1535, !1536, !1537, !1538, !1539, !1540}
!1530 = !DIDerivedType(tag: DW_TAG_member, name: "tm_sec", scope: !1527, file: !1528, line: 76, baseType: !21, size: 32)
!1531 = !DIDerivedType(tag: DW_TAG_member, name: "tm_min", scope: !1527, file: !1528, line: 77, baseType: !21, size: 32, offset: 32)
!1532 = !DIDerivedType(tag: DW_TAG_member, name: "tm_hour", scope: !1527, file: !1528, line: 78, baseType: !21, size: 32, offset: 64)
!1533 = !DIDerivedType(tag: DW_TAG_member, name: "tm_mday", scope: !1527, file: !1528, line: 79, baseType: !21, size: 32, offset: 96)
!1534 = !DIDerivedType(tag: DW_TAG_member, name: "tm_mon", scope: !1527, file: !1528, line: 80, baseType: !21, size: 32, offset: 128)
!1535 = !DIDerivedType(tag: DW_TAG_member, name: "tm_year", scope: !1527, file: !1528, line: 81, baseType: !21, size: 32, offset: 160)
!1536 = !DIDerivedType(tag: DW_TAG_member, name: "tm_wday", scope: !1527, file: !1528, line: 82, baseType: !21, size: 32, offset: 192)
!1537 = !DIDerivedType(tag: DW_TAG_member, name: "tm_yday", scope: !1527, file: !1528, line: 83, baseType: !21, size: 32, offset: 224)
!1538 = !DIDerivedType(tag: DW_TAG_member, name: "tm_isdst", scope: !1527, file: !1528, line: 84, baseType: !21, size: 32, offset: 256)
!1539 = !DIDerivedType(tag: DW_TAG_member, name: "tm_gmtoff", scope: !1527, file: !1528, line: 85, baseType: !62, size: 64, offset: 320)
!1540 = !DIDerivedType(tag: DW_TAG_member, name: "tm_zone", scope: !1527, file: !1528, line: 86, baseType: !205, size: 64, offset: 384)
!1541 = !DIImportedEntity(tag: DW_TAG_imported_declaration, scope: !13, entity: !1542, file: !1520, line: 78)
!1542 = !DISubprogram(name: "clock", linkageName: "\01_clock", scope: !1528, file: !1528, line: 109, type: !1543, flags: DIFlagPrototyped, spFlags: DISPFlagOptimized)
!1543 = !DISubroutineType(types: !1544)
!1544 = !{!1517}
!1545 = !DIImportedEntity(tag: DW_TAG_imported_declaration, scope: !13, entity: !1546, file: !1520, line: 79)
!1546 = !DISubprogram(name: "difftime", scope: !1528, file: !1528, line: 111, type: !1547, flags: DIFlagPrototyped, spFlags: DISPFlagOptimized)
!1547 = !DISubroutineType(types: !1548)
!1548 = !{!1225, !1523, !1523}
!1549 = !DIImportedEntity(tag: DW_TAG_imported_declaration, scope: !13, entity: !1550, file: !1520, line: 80)
!1550 = !DISubprogram(name: "mktime", linkageName: "\01_mktime", scope: !1528, file: !1528, line: 115, type: !1551, flags: DIFlagPrototyped, spFlags: DISPFlagOptimized)
!1551 = !DISubroutineType(types: !1552)
!1552 = !{!1523, !1553}
!1553 = !DIDerivedType(tag: DW_TAG_pointer_type, baseType: !1527, size: 64)
!1554 = !DIImportedEntity(tag: DW_TAG_imported_declaration, scope: !13, entity: !1555, file: !1520, line: 81)
!1555 = !DISubprogram(name: "time", scope: !1528, file: !1528, line: 118, type: !1556, flags: DIFlagPrototyped, spFlags: DISPFlagOptimized)
!1556 = !DISubroutineType(types: !1557)
!1557 = !{!1523, !1558}
!1558 = !DIDerivedType(tag: DW_TAG_pointer_type, baseType: !1523, size: 64)
!1559 = !DIImportedEntity(tag: DW_TAG_imported_declaration, scope: !13, entity: !1560, file: !1520, line: 83)
!1560 = !DISubprogram(name: "asctime", scope: !1528, file: !1528, line: 108, type: !1561, flags: DIFlagPrototyped, spFlags: DISPFlagOptimized)
!1561 = !DISubroutineType(types: !1562)
!1562 = !{!205, !1563}
!1563 = !DIDerivedType(tag: DW_TAG_pointer_type, baseType: !1564, size: 64)
!1564 = !DIDerivedType(tag: DW_TAG_const_type, baseType: !1527)
!1565 = !DIImportedEntity(tag: DW_TAG_imported_declaration, scope: !13, entity: !1566, file: !1520, line: 84)
!1566 = !DISubprogram(name: "ctime", scope: !1528, file: !1528, line: 110, type: !1567, flags: DIFlagPrototyped, spFlags: DISPFlagOptimized)
!1567 = !DISubroutineType(types: !1568)
!1568 = !{!205, !1569}
!1569 = !DIDerivedType(tag: DW_TAG_pointer_type, baseType: !1570, size: 64)
!1570 = !DIDerivedType(tag: DW_TAG_const_type, baseType: !1523)
!1571 = !DIImportedEntity(tag: DW_TAG_imported_declaration, scope: !13, entity: !1572, file: !1520, line: 85)
!1572 = !DISubprogram(name: "gmtime", scope: !1528, file: !1528, line: 113, type: !1573, flags: DIFlagPrototyped, spFlags: DISPFlagOptimized)
!1573 = !DISubroutineType(types: !1574)
!1574 = !{!1553, !1569}
!1575 = !DIImportedEntity(tag: DW_TAG_imported_declaration, scope: !13, entity: !1576, file: !1520, line: 86)
!1576 = !DISubprogram(name: "localtime", scope: !1528, file: !1528, line: 114, type: !1573, flags: DIFlagPrototyped, spFlags: DISPFlagOptimized)
!1577 = !DIImportedEntity(tag: DW_TAG_imported_declaration, scope: !13, entity: !1578, file: !1520, line: 88)
!1578 = !DISubprogram(name: "strftime", linkageName: "\01_strftime", scope: !1528, file: !1528, line: 116, type: !1579, flags: DIFlagPrototyped, spFlags: DISPFlagOptimized)
!1579 = !DISubroutineType(types: !1580)
!1580 = !{!79, !205, !79, !148, !1563}
!1581 = !DIImportedEntity(tag: DW_TAG_imported_module, scope: !1582, entity: !1583, file: !1585, line: 2924)
!1582 = !DINamespace(name: "chrono", scope: !13)
!1583 = !DINamespace(name: "chrono_literals", scope: !1584, exportSymbols: true)
!1584 = !DINamespace(name: "literals", scope: !13, exportSymbols: true)
!1585 = !DIFile(filename: "LLVM/llvm/build-release-clang-lldb-13.0.0/bin/../include/c++/v1/chrono", directory: "/Users/jryans/Projects")
!1586 = !DIImportedEntity(tag: DW_TAG_imported_declaration, scope: !13, entity: !1587, file: !1638, line: 107)
!1587 = !DIDerivedType(tag: DW_TAG_typedef, name: "FILE", file: !1588, line: 157, baseType: !1589)
!1588 = !DIFile(filename: "/Applications/Xcode.app/Contents/Developer/Platforms/MacOSX.platform/Developer/SDKs/MacOSX.sdk/usr/include/_stdio.h", directory: "")
!1589 = distinct !DICompositeType(tag: DW_TAG_structure_type, name: "__sFILE", file: !1588, line: 126, size: 1216, flags: DIFlagTypePassByValue, elements: !1590, identifier: "_ZTS7__sFILE")
!1590 = !{!1591, !1593, !1594, !1595, !1596, !1597, !1602, !1603, !1604, !1608, !1612, !1620, !1624, !1625, !1628, !1629, !1631, !1635, !1636, !1637}
!1591 = !DIDerivedType(tag: DW_TAG_member, name: "_p", scope: !1589, file: !1588, line: 127, baseType: !1592, size: 64)
!1592 = !DIDerivedType(tag: DW_TAG_pointer_type, baseType: !272, size: 64)
!1593 = !DIDerivedType(tag: DW_TAG_member, name: "_r", scope: !1589, file: !1588, line: 128, baseType: !21, size: 32, offset: 64)
!1594 = !DIDerivedType(tag: DW_TAG_member, name: "_w", scope: !1589, file: !1588, line: 129, baseType: !21, size: 32, offset: 96)
!1595 = !DIDerivedType(tag: DW_TAG_member, name: "_flags", scope: !1589, file: !1588, line: 130, baseType: !1379, size: 16, offset: 128)
!1596 = !DIDerivedType(tag: DW_TAG_member, name: "_file", scope: !1589, file: !1588, line: 131, baseType: !1379, size: 16, offset: 144)
!1597 = !DIDerivedType(tag: DW_TAG_member, name: "_bf", scope: !1589, file: !1588, line: 132, baseType: !1598, size: 128, offset: 192)
!1598 = distinct !DICompositeType(tag: DW_TAG_structure_type, name: "__sbuf", file: !1588, line: 92, size: 128, flags: DIFlagTypePassByValue, elements: !1599, identifier: "_ZTS6__sbuf")
!1599 = !{!1600, !1601}
!1600 = !DIDerivedType(tag: DW_TAG_member, name: "_base", scope: !1598, file: !1588, line: 93, baseType: !1592, size: 64)
!1601 = !DIDerivedType(tag: DW_TAG_member, name: "_size", scope: !1598, file: !1588, line: 94, baseType: !21, size: 32, offset: 64)
!1602 = !DIDerivedType(tag: DW_TAG_member, name: "_lbfsize", scope: !1589, file: !1588, line: 133, baseType: !21, size: 32, offset: 320)
!1603 = !DIDerivedType(tag: DW_TAG_member, name: "_cookie", scope: !1589, file: !1588, line: 136, baseType: !67, size: 64, offset: 384)
!1604 = !DIDerivedType(tag: DW_TAG_member, name: "_close", scope: !1589, file: !1588, line: 137, baseType: !1605, size: 64, offset: 448)
!1605 = !DIDerivedType(tag: DW_TAG_pointer_type, baseType: !1606, size: 64)
!1606 = !DISubroutineType(types: !1607)
!1607 = !{!21, !67}
!1608 = !DIDerivedType(tag: DW_TAG_member, name: "_read", scope: !1589, file: !1588, line: 138, baseType: !1609, size: 64, offset: 512)
!1609 = !DIDerivedType(tag: DW_TAG_pointer_type, baseType: !1610, size: 64)
!1610 = !DISubroutineType(types: !1611)
!1611 = !{!21, !67, !205, !21}
!1612 = !DIDerivedType(tag: DW_TAG_member, name: "_seek", scope: !1589, file: !1588, line: 139, baseType: !1613, size: 64, offset: 576)
!1613 = !DIDerivedType(tag: DW_TAG_pointer_type, baseType: !1614, size: 64)
!1614 = !DISubroutineType(types: !1615)
!1615 = !{!1616, !67, !1616, !21}
!1616 = !DIDerivedType(tag: DW_TAG_typedef, name: "fpos_t", file: !1588, line: 81, baseType: !1617)
!1617 = !DIDerivedType(tag: DW_TAG_typedef, name: "__darwin_off_t", file: !1618, line: 71, baseType: !1619)
!1618 = !DIFile(filename: "/Applications/Xcode.app/Contents/Developer/Platforms/MacOSX.platform/Developer/SDKs/MacOSX.sdk/usr/include/sys/_types.h", directory: "")
!1619 = !DIDerivedType(tag: DW_TAG_typedef, name: "__int64_t", file: !1434, line: 48, baseType: !1219)
!1620 = !DIDerivedType(tag: DW_TAG_member, name: "_write", scope: !1589, file: !1588, line: 140, baseType: !1621, size: 64, offset: 640)
!1621 = !DIDerivedType(tag: DW_TAG_pointer_type, baseType: !1622, size: 64)
!1622 = !DISubroutineType(types: !1623)
!1623 = !{!21, !67, !148, !21}
!1624 = !DIDerivedType(tag: DW_TAG_member, name: "_ub", scope: !1589, file: !1588, line: 143, baseType: !1598, size: 128, offset: 704)
!1625 = !DIDerivedType(tag: DW_TAG_member, name: "_extra", scope: !1589, file: !1588, line: 144, baseType: !1626, size: 64, offset: 832)
!1626 = !DIDerivedType(tag: DW_TAG_pointer_type, baseType: !1627, size: 64)
!1627 = !DICompositeType(tag: DW_TAG_structure_type, name: "__sFILEX", file: !1588, line: 98, flags: DIFlagFwdDecl | DIFlagNonTrivial, identifier: "_ZTS8__sFILEX")
!1628 = !DIDerivedType(tag: DW_TAG_member, name: "_ur", scope: !1589, file: !1588, line: 145, baseType: !21, size: 32, offset: 896)
!1629 = !DIDerivedType(tag: DW_TAG_member, name: "_ubuf", scope: !1589, file: !1588, line: 148, baseType: !1630, size: 24, offset: 928)
!1630 = !DICompositeType(tag: DW_TAG_array_type, baseType: !272, size: 24, elements: !284)
!1631 = !DIDerivedType(tag: DW_TAG_member, name: "_nbuf", scope: !1589, file: !1588, line: 149, baseType: !1632, size: 8, offset: 952)
!1632 = !DICompositeType(tag: DW_TAG_array_type, baseType: !272, size: 8, elements: !1633)
!1633 = !{!1634}
!1634 = !DISubrange(count: 1)
!1635 = !DIDerivedType(tag: DW_TAG_member, name: "_lb", scope: !1589, file: !1588, line: 152, baseType: !1598, size: 128, offset: 960)
!1636 = !DIDerivedType(tag: DW_TAG_member, name: "_blksize", scope: !1589, file: !1588, line: 155, baseType: !21, size: 32, offset: 1088)
!1637 = !DIDerivedType(tag: DW_TAG_member, name: "_offset", scope: !1589, file: !1588, line: 156, baseType: !1616, size: 64, offset: 1152)
!1638 = !DIFile(filename: "LLVM/llvm/build-release-clang-lldb-13.0.0/bin/../include/c++/v1/cstdio", directory: "/Users/jryans/Projects")
!1639 = !DIImportedEntity(tag: DW_TAG_imported_declaration, scope: !13, entity: !1616, file: !1638, line: 108)
!1640 = !DIImportedEntity(tag: DW_TAG_imported_declaration, scope: !13, entity: !79, file: !1638, line: 109)
!1641 = !DIImportedEntity(tag: DW_TAG_imported_declaration, scope: !13, entity: !1642, file: !1638, line: 111)
!1642 = !DISubprogram(name: "fclose", scope: !1643, file: !1643, line: 143, type: !1644, flags: DIFlagPrototyped, spFlags: DISPFlagOptimized)
!1643 = !DIFile(filename: "/Applications/Xcode.app/Contents/Developer/Platforms/MacOSX.platform/Developer/SDKs/MacOSX.sdk/usr/include/stdio.h", directory: "")
!1644 = !DISubroutineType(types: !1645)
!1645 = !{!21, !1646}
!1646 = !DIDerivedType(tag: DW_TAG_pointer_type, baseType: !1587, size: 64)
!1647 = !DIImportedEntity(tag: DW_TAG_imported_declaration, scope: !13, entity: !1648, file: !1638, line: 112)
!1648 = !DISubprogram(name: "fflush", scope: !1643, file: !1643, line: 146, type: !1644, flags: DIFlagPrototyped, spFlags: DISPFlagOptimized)
!1649 = !DIImportedEntity(tag: DW_TAG_imported_declaration, scope: !13, entity: !1650, file: !1638, line: 113)
!1650 = !DISubprogram(name: "setbuf", scope: !1643, file: !1643, line: 183, type: !1651, flags: DIFlagPrototyped, spFlags: DISPFlagOptimized)
!1651 = !DISubroutineType(types: !1652)
!1652 = !{null, !1646, !205}
!1653 = !DIImportedEntity(tag: DW_TAG_imported_declaration, scope: !13, entity: !1654, file: !1638, line: 114)
!1654 = !DISubprogram(name: "setvbuf", scope: !1643, file: !1643, line: 184, type: !1655, flags: DIFlagPrototyped, spFlags: DISPFlagOptimized)
!1655 = !DISubroutineType(types: !1656)
!1656 = !{!21, !1646, !205, !21, !79}
!1657 = !DIImportedEntity(tag: DW_TAG_imported_declaration, scope: !13, entity: !1658, file: !1638, line: 115)
!1658 = !DISubprogram(name: "fprintf", scope: !1643, file: !1643, line: 155, type: !1659, flags: DIFlagPrototyped, spFlags: DISPFlagOptimized)
!1659 = !DISubroutineType(types: !1660)
!1660 = !{!21, !1646, !148, null}
!1661 = !DIImportedEntity(tag: DW_TAG_imported_declaration, scope: !13, entity: !1662, file: !1638, line: 116)
!1662 = !DISubprogram(name: "fscanf", scope: !1643, file: !1643, line: 161, type: !1659, flags: DIFlagPrototyped, spFlags: DISPFlagOptimized)
!1663 = !DIImportedEntity(tag: DW_TAG_imported_declaration, scope: !13, entity: !1664, file: !1638, line: 117)
!1664 = !DISubprogram(name: "snprintf", scope: !1643, file: !1643, line: 344, type: !1665, flags: DIFlagPrototyped, spFlags: DISPFlagOptimized)
!1665 = !DISubroutineType(types: !1666)
!1666 = !{!21, !205, !79, !148, null}
!1667 = !DIImportedEntity(tag: DW_TAG_imported_declaration, scope: !13, entity: !1668, file: !1638, line: 118)
!1668 = !DISubprogram(name: "sprintf", scope: !1643, file: !1643, line: 190, type: !1669, flags: DIFlagPrototyped, spFlags: DISPFlagOptimized)
!1669 = !DISubroutineType(types: !1670)
!1670 = !{!21, !205, !148, null}
!1671 = !DIImportedEntity(tag: DW_TAG_imported_declaration, scope: !13, entity: !1672, file: !1638, line: 119)
!1672 = !DISubprogram(name: "sscanf", scope: !1643, file: !1643, line: 192, type: !1673, flags: DIFlagPrototyped, spFlags: DISPFlagOptimized)
!1673 = !DISubroutineType(types: !1674)
!1674 = !{!21, !148, !148, null}
!1675 = !DIImportedEntity(tag: DW_TAG_imported_declaration, scope: !13, entity: !1676, file: !1638, line: 120)
!1676 = !DISubprogram(name: "vfprintf", scope: !1643, file: !1643, line: 202, type: !1677, flags: DIFlagPrototyped, spFlags: DISPFlagOptimized)
!1677 = !DISubroutineType(types: !1678)
!1678 = !{!21, !1646, !148, !1679}
!1679 = !DIDerivedType(tag: DW_TAG_pointer_type, baseType: !1680, size: 64)
!1680 = distinct !DICompositeType(tag: DW_TAG_structure_type, name: "__va_list_tag", size: 192, flags: DIFlagTypePassByValue, elements: !1681, identifier: "_ZTS13__va_list_tag")
!1681 = !{!1682, !1683, !1684, !1685}
!1682 = !DIDerivedType(tag: DW_TAG_member, name: "gp_offset", scope: !1680, file: !8, baseType: !25, size: 32)
!1683 = !DIDerivedType(tag: DW_TAG_member, name: "fp_offset", scope: !1680, file: !8, baseType: !25, size: 32, offset: 32)
!1684 = !DIDerivedType(tag: DW_TAG_member, name: "overflow_arg_area", scope: !1680, file: !8, baseType: !67, size: 64, offset: 64)
!1685 = !DIDerivedType(tag: DW_TAG_member, name: "reg_save_area", scope: !1680, file: !8, baseType: !67, size: 64, offset: 128)
!1686 = !DIImportedEntity(tag: DW_TAG_imported_declaration, scope: !13, entity: !1687, file: !1638, line: 121)
!1687 = !DISubprogram(name: "vfscanf", scope: !1643, file: !1643, line: 345, type: !1677, flags: DIFlagPrototyped, spFlags: DISPFlagOptimized)
!1688 = !DIImportedEntity(tag: DW_TAG_imported_declaration, scope: !13, entity: !1689, file: !1638, line: 122)
!1689 = !DISubprogram(name: "vsscanf", scope: !1643, file: !1643, line: 348, type: !1690, flags: DIFlagPrototyped, spFlags: DISPFlagOptimized)
!1690 = !DISubroutineType(types: !1691)
!1691 = !{!21, !148, !148, !1679}
!1692 = !DIImportedEntity(tag: DW_TAG_imported_declaration, scope: !13, entity: !1693, file: !1638, line: 123)
!1693 = !DISubprogram(name: "vsnprintf", scope: !1643, file: !1643, line: 347, type: !1694, flags: DIFlagPrototyped, spFlags: DISPFlagOptimized)
!1694 = !DISubroutineType(types: !1695)
!1695 = !{!21, !205, !79, !148, !1679}
!1696 = !DIImportedEntity(tag: DW_TAG_imported_declaration, scope: !13, entity: !1697, file: !1638, line: 124)
!1697 = !DISubprogram(name: "vsprintf", scope: !1643, file: !1643, line: 209, type: !1698, flags: DIFlagPrototyped, spFlags: DISPFlagOptimized)
!1698 = !DISubroutineType(types: !1699)
!1699 = !{!21, !205, !148, !1679}
!1700 = !DIImportedEntity(tag: DW_TAG_imported_declaration, scope: !13, entity: !1701, file: !1638, line: 125)
!1701 = !DISubprogram(name: "fgetc", scope: !1643, file: !1643, line: 147, type: !1644, flags: DIFlagPrototyped, spFlags: DISPFlagOptimized)
!1702 = !DIImportedEntity(tag: DW_TAG_imported_declaration, scope: !13, entity: !1703, file: !1638, line: 126)
!1703 = !DISubprogram(name: "fgets", scope: !1643, file: !1643, line: 149, type: !1704, flags: DIFlagPrototyped, spFlags: DISPFlagOptimized)
!1704 = !DISubroutineType(types: !1705)
!1705 = !{!205, !205, !21, !1646}
!1706 = !DIImportedEntity(tag: DW_TAG_imported_declaration, scope: !13, entity: !1707, file: !1638, line: 127)
!1707 = !DISubprogram(name: "fputc", scope: !1643, file: !1643, line: 156, type: !1708, flags: DIFlagPrototyped, spFlags: DISPFlagOptimized)
!1708 = !DISubroutineType(types: !1709)
!1709 = !{!21, !21, !1646}
!1710 = !DIImportedEntity(tag: DW_TAG_imported_declaration, scope: !13, entity: !1711, file: !1638, line: 128)
!1711 = !DISubprogram(name: "fputs", linkageName: "\01_fputs", scope: !1643, file: !1643, line: 157, type: !1712, flags: DIFlagPrototyped, spFlags: DISPFlagOptimized)
!1712 = !DISubroutineType(types: !1713)
!1713 = !{!21, !148, !1646}
!1714 = !DIImportedEntity(tag: DW_TAG_imported_declaration, scope: !13, entity: !1715, file: !1638, line: 129)
!1715 = !DISubprogram(name: "getc", scope: !1643, file: !1643, line: 166, type: !1644, flags: DIFlagPrototyped, spFlags: DISPFlagOptimized)
!1716 = !DIImportedEntity(tag: DW_TAG_imported_declaration, scope: !13, entity: !1717, file: !1638, line: 130)
!1717 = !DISubprogram(name: "putc", scope: !1643, file: !1643, line: 176, type: !1708, flags: DIFlagPrototyped, spFlags: DISPFlagOptimized)
!1718 = !DIImportedEntity(tag: DW_TAG_imported_declaration, scope: !13, entity: !1719, file: !1638, line: 131)
!1719 = !DISubprogram(name: "ungetc", scope: !1643, file: !1643, line: 201, type: !1708, flags: DIFlagPrototyped, spFlags: DISPFlagOptimized)
!1720 = !DIImportedEntity(tag: DW_TAG_imported_declaration, scope: !13, entity: !1721, file: !1638, line: 132)
!1721 = !DISubprogram(name: "fread", scope: !1643, file: !1643, line: 158, type: !1722, flags: DIFlagPrototyped, spFlags: DISPFlagOptimized)
!1722 = !DISubroutineType(types: !1723)
!1723 = !{!79, !67, !79, !79, !1646}
!1724 = !DIImportedEntity(tag: DW_TAG_imported_declaration, scope: !13, entity: !1725, file: !1638, line: 133)
!1725 = !DISubprogram(name: "fwrite", linkageName: "\01_fwrite", scope: !1643, file: !1643, line: 165, type: !1726, flags: DIFlagPrototyped, spFlags: DISPFlagOptimized)
!1726 = !DISubroutineType(types: !1727)
!1727 = !{!79, !225, !79, !79, !1646}
!1728 = !DIImportedEntity(tag: DW_TAG_imported_declaration, scope: !13, entity: !1729, file: !1638, line: 135)
!1729 = !DISubprogram(name: "fgetpos", scope: !1643, file: !1643, line: 148, type: !1730, flags: DIFlagPrototyped, spFlags: DISPFlagOptimized)
!1730 = !DISubroutineType(types: !1731)
!1731 = !{!21, !1646, !1732}
!1732 = !DIDerivedType(tag: DW_TAG_pointer_type, baseType: !1616, size: 64)
!1733 = !DIImportedEntity(tag: DW_TAG_imported_declaration, scope: !13, entity: !1734, file: !1638, line: 137)
!1734 = !DISubprogram(name: "fseek", scope: !1643, file: !1643, line: 162, type: !1735, flags: DIFlagPrototyped, spFlags: DISPFlagOptimized)
!1735 = !DISubroutineType(types: !1736)
!1736 = !{!21, !1646, !62, !21}
!1737 = !DIImportedEntity(tag: DW_TAG_imported_declaration, scope: !13, entity: !1738, file: !1638, line: 139)
!1738 = !DISubprogram(name: "fsetpos", scope: !1643, file: !1643, line: 163, type: !1739, flags: DIFlagPrototyped, spFlags: DISPFlagOptimized)
!1739 = !DISubroutineType(types: !1740)
!1740 = !{!21, !1646, !1741}
!1741 = !DIDerivedType(tag: DW_TAG_pointer_type, baseType: !1742, size: 64)
!1742 = !DIDerivedType(tag: DW_TAG_const_type, baseType: !1616)
!1743 = !DIImportedEntity(tag: DW_TAG_imported_declaration, scope: !13, entity: !1744, file: !1638, line: 141)
!1744 = !DISubprogram(name: "ftell", scope: !1643, file: !1643, line: 164, type: !1745, flags: DIFlagPrototyped, spFlags: DISPFlagOptimized)
!1745 = !DISubroutineType(types: !1746)
!1746 = !{!62, !1646}
!1747 = !DIImportedEntity(tag: DW_TAG_imported_declaration, scope: !13, entity: !1748, file: !1638, line: 142)
!1748 = !DISubprogram(name: "rewind", scope: !1643, file: !1643, line: 181, type: !1749, flags: DIFlagPrototyped, spFlags: DISPFlagOptimized)
!1749 = !DISubroutineType(types: !1750)
!1750 = !{null, !1646}
!1751 = !DIImportedEntity(tag: DW_TAG_imported_declaration, scope: !13, entity: !1752, file: !1638, line: 143)
!1752 = !DISubprogram(name: "clearerr", scope: !1643, file: !1643, line: 142, type: !1749, flags: DIFlagPrototyped, spFlags: DISPFlagOptimized)
!1753 = !DIImportedEntity(tag: DW_TAG_imported_declaration, scope: !13, entity: !1754, file: !1638, line: 144)
!1754 = !DISubprogram(name: "feof", scope: !1643, file: !1643, line: 144, type: !1644, flags: DIFlagPrototyped, spFlags: DISPFlagOptimized)
!1755 = !DIImportedEntity(tag: DW_TAG_imported_declaration, scope: !13, entity: !1756, file: !1638, line: 145)
!1756 = !DISubprogram(name: "ferror", scope: !1643, file: !1643, line: 145, type: !1644, flags: DIFlagPrototyped, spFlags: DISPFlagOptimized)
!1757 = !DIImportedEntity(tag: DW_TAG_imported_declaration, scope: !13, entity: !1758, file: !1638, line: 146)
!1758 = !DISubprogram(name: "perror", scope: !1643, file: !1643, line: 174, type: !1759, flags: DIFlagPrototyped, spFlags: DISPFlagOptimized)
!1759 = !DISubroutineType(types: !1760)
!1760 = !{null, !148}
!1761 = !DIImportedEntity(tag: DW_TAG_imported_declaration, scope: !13, entity: !1762, file: !1638, line: 149)
!1762 = !DISubprogram(name: "fopen", linkageName: "\01_fopen", scope: !1643, file: !1643, line: 153, type: !1763, flags: DIFlagPrototyped, spFlags: DISPFlagOptimized)
!1763 = !DISubroutineType(types: !1764)
!1764 = !{!1646, !148, !148}
!1765 = !DIImportedEntity(tag: DW_TAG_imported_declaration, scope: !13, entity: !1766, file: !1638, line: 150)
!1766 = !DISubprogram(name: "freopen", linkageName: "\01_freopen", scope: !1643, file: !1643, line: 159, type: !1767, flags: DIFlagPrototyped, spFlags: DISPFlagOptimized)
!1767 = !DISubroutineType(types: !1768)
!1768 = !{!1646, !148, !148, !1646}
!1769 = !DIImportedEntity(tag: DW_TAG_imported_declaration, scope: !13, entity: !1770, file: !1638, line: 151)
!1770 = !DISubprogram(name: "remove", scope: !1643, file: !1643, line: 179, type: !1228, flags: DIFlagPrototyped, spFlags: DISPFlagOptimized)
!1771 = !DIImportedEntity(tag: DW_TAG_imported_declaration, scope: !13, entity: !1772, file: !1638, line: 152)
!1772 = !DISubprogram(name: "rename", scope: !1643, file: !1643, line: 180, type: !1471, flags: DIFlagPrototyped, spFlags: DISPFlagOptimized)
!1773 = !DIImportedEntity(tag: DW_TAG_imported_declaration, scope: !13, entity: !1774, file: !1638, line: 153)
!1774 = !DISubprogram(name: "tmpfile", scope: !1643, file: !1643, line: 193, type: !1775, flags: DIFlagPrototyped, spFlags: DISPFlagOptimized)
!1775 = !DISubroutineType(types: !1776)
!1776 = !{!1646}
!1777 = !DIImportedEntity(tag: DW_TAG_imported_declaration, scope: !13, entity: !1778, file: !1638, line: 154)
!1778 = !DISubprogram(name: "tmpnam", scope: !1643, file: !1643, line: 199, type: !1779, flags: DIFlagPrototyped, spFlags: DISPFlagOptimized)
!1779 = !DISubroutineType(types: !1780)
!1780 = !{!205, !205}
!1781 = !DIImportedEntity(tag: DW_TAG_imported_declaration, scope: !13, entity: !1782, file: !1638, line: 158)
!1782 = !DISubprogram(name: "getchar", scope: !1643, file: !1643, line: 167, type: !19, flags: DIFlagPrototyped, spFlags: DISPFlagOptimized)
!1783 = !DIImportedEntity(tag: DW_TAG_imported_declaration, scope: !13, entity: !1784, file: !1638, line: 162)
!1784 = !DISubprogram(name: "scanf", scope: !1643, file: !1643, line: 182, type: !1785, flags: DIFlagPrototyped, spFlags: DISPFlagOptimized)
!1785 = !DISubroutineType(types: !1786)
!1786 = !{!21, !148, null}
!1787 = !DIImportedEntity(tag: DW_TAG_imported_declaration, scope: !13, entity: !1788, file: !1638, line: 163)
!1788 = !DISubprogram(name: "vscanf", scope: !1643, file: !1643, line: 346, type: !1789, flags: DIFlagPrototyped, spFlags: DISPFlagOptimized)
!1789 = !DISubroutineType(types: !1790)
!1790 = !{!21, !148, !1679}
!1791 = !DIImportedEntity(tag: DW_TAG_imported_declaration, scope: !13, entity: !1792, file: !1638, line: 167)
!1792 = !DISubprogram(name: "printf", scope: !1643, file: !1643, line: 175, type: !1785, flags: DIFlagPrototyped, spFlags: DISPFlagOptimized)
!1793 = !DIImportedEntity(tag: DW_TAG_imported_declaration, scope: !13, entity: !1794, file: !1638, line: 168)
!1794 = !DISubprogram(name: "putchar", scope: !1643, file: !1643, line: 177, type: !1795, flags: DIFlagPrototyped, spFlags: DISPFlagOptimized)
!1795 = !DISubroutineType(types: !1796)
!1796 = !{!21, !21}
!1797 = !DIImportedEntity(tag: DW_TAG_imported_declaration, scope: !13, entity: !1798, file: !1638, line: 169)
!1798 = !DISubprogram(name: "puts", scope: !1643, file: !1643, line: 178, type: !1228, flags: DIFlagPrototyped, spFlags: DISPFlagOptimized)
!1799 = !DIImportedEntity(tag: DW_TAG_imported_declaration, scope: !13, entity: !1800, file: !1638, line: 170)
!1800 = !DISubprogram(name: "vprintf", scope: !1643, file: !1643, line: 203, type: !1789, flags: DIFlagPrototyped, spFlags: DISPFlagOptimized)
!1801 = !DIImportedEntity(tag: DW_TAG_imported_declaration, scope: !13, entity: !1802, file: !1804, line: 103)
!1802 = !DISubprogram(name: "isalnum", linkageName: "_Z7isalnumi", scope: !1803, file: !1803, line: 212, type: !1795, flags: DIFlagPrototyped, spFlags: DISPFlagOptimized)
!1803 = !DIFile(filename: "/Applications/Xcode.app/Contents/Developer/Platforms/MacOSX.platform/Developer/SDKs/MacOSX.sdk/usr/include/_ctype.h", directory: "")
!1804 = !DIFile(filename: "LLVM/llvm/build-release-clang-lldb-13.0.0/bin/../include/c++/v1/cctype", directory: "/Users/jryans/Projects")
!1805 = !DIImportedEntity(tag: DW_TAG_imported_declaration, scope: !13, entity: !1806, file: !1804, line: 104)
!1806 = !DISubprogram(name: "isalpha", linkageName: "_Z7isalphai", scope: !1803, file: !1803, line: 218, type: !1795, flags: DIFlagPrototyped, spFlags: DISPFlagOptimized)
!1807 = !DIImportedEntity(tag: DW_TAG_imported_declaration, scope: !13, entity: !1808, file: !1804, line: 105)
!1808 = !DISubprogram(name: "isblank", linkageName: "_Z7isblanki", scope: !1803, file: !1803, line: 224, type: !1795, flags: DIFlagPrototyped, spFlags: DISPFlagOptimized)
!1809 = !DIImportedEntity(tag: DW_TAG_imported_declaration, scope: !13, entity: !1810, file: !1804, line: 106)
!1810 = !DISubprogram(name: "iscntrl", linkageName: "_Z7iscntrli", scope: !1803, file: !1803, line: 230, type: !1795, flags: DIFlagPrototyped, spFlags: DISPFlagOptimized)
!1811 = !DIImportedEntity(tag: DW_TAG_imported_declaration, scope: !13, entity: !1812, file: !1804, line: 107)
!1812 = !DISubprogram(name: "isdigit", linkageName: "_Z7isdigiti", scope: !1803, file: !1803, line: 237, type: !1795, flags: DIFlagPrototyped, spFlags: DISPFlagOptimized)
!1813 = !DIImportedEntity(tag: DW_TAG_imported_declaration, scope: !13, entity: !1814, file: !1804, line: 108)
!1814 = !DISubprogram(name: "isgraph", linkageName: "_Z7isgraphi", scope: !1803, file: !1803, line: 243, type: !1795, flags: DIFlagPrototyped, spFlags: DISPFlagOptimized)
!1815 = !DIImportedEntity(tag: DW_TAG_imported_declaration, scope: !13, entity: !1816, file: !1804, line: 109)
!1816 = !DISubprogram(name: "islower", linkageName: "_Z7isloweri", scope: !1803, file: !1803, line: 249, type: !1795, flags: DIFlagPrototyped, spFlags: DISPFlagOptimized)
!1817 = !DIImportedEntity(tag: DW_TAG_imported_declaration, scope: !13, entity: !1818, file: !1804, line: 110)
!1818 = !DISubprogram(name: "isprint", linkageName: "_Z7isprinti", scope: !1803, file: !1803, line: 255, type: !1795, flags: DIFlagPrototyped, spFlags: DISPFlagOptimized)
!1819 = !DIImportedEntity(tag: DW_TAG_imported_declaration, scope: !13, entity: !1820, file: !1804, line: 111)
!1820 = !DISubprogram(name: "ispunct", linkageName: "_Z7ispuncti", scope: !1803, file: !1803, line: 261, type: !1795, flags: DIFlagPrototyped, spFlags: DISPFlagOptimized)
!1821 = !DIImportedEntity(tag: DW_TAG_imported_declaration, scope: !13, entity: !1822, file: !1804, line: 112)
!1822 = !DISubprogram(name: "isspace", linkageName: "_Z7isspacei", scope: !1803, file: !1803, line: 267, type: !1795, flags: DIFlagPrototyped, spFlags: DISPFlagOptimized)
!1823 = !DIImportedEntity(tag: DW_TAG_imported_declaration, scope: !13, entity: !1824, file: !1804, line: 113)
!1824 = !DISubprogram(name: "isupper", linkageName: "_Z7isupperi", scope: !1803, file: !1803, line: 273, type: !1795, flags: DIFlagPrototyped, spFlags: DISPFlagOptimized)
!1825 = !DIImportedEntity(tag: DW_TAG_imported_declaration, scope: !13, entity: !1826, file: !1804, line: 114)
!1826 = !DISubprogram(name: "isxdigit", linkageName: "_Z8isxdigiti", scope: !1803, file: !1803, line: 280, type: !1795, flags: DIFlagPrototyped, spFlags: DISPFlagOptimized)
!1827 = !DIImportedEntity(tag: DW_TAG_imported_declaration, scope: !13, entity: !1828, file: !1804, line: 115)
!1828 = !DISubprogram(name: "tolower", linkageName: "_Z7toloweri", scope: !1803, file: !1803, line: 292, type: !1795, flags: DIFlagPrototyped, spFlags: DISPFlagOptimized)
!1829 = !DIImportedEntity(tag: DW_TAG_imported_declaration, scope: !13, entity: !1830, file: !1804, line: 116)
!1830 = !DISubprogram(name: "toupper", linkageName: "_Z7toupperi", scope: !1803, file: !1803, line: 298, type: !1795, flags: DIFlagPrototyped, spFlags: DISPFlagOptimized)
!1831 = !DIImportedEntity(tag: DW_TAG_imported_declaration, scope: !13, entity: !1832, file: !1835, line: 63)
!1832 = !DIDerivedType(tag: DW_TAG_typedef, name: "wint_t", file: !1833, line: 32, baseType: !1834)
!1833 = !DIFile(filename: "/Applications/Xcode.app/Contents/Developer/Platforms/MacOSX.platform/Developer/SDKs/MacOSX.sdk/usr/include/sys/_types/_wint_t.h", directory: "")
!1834 = !DIDerivedType(tag: DW_TAG_typedef, name: "__darwin_wint_t", file: !1434, line: 114, baseType: !21)
!1835 = !DIFile(filename: "LLVM/llvm/build-release-clang-lldb-13.0.0/bin/../include/c++/v1/cwctype", directory: "/Users/jryans/Projects")
!1836 = !DIImportedEntity(tag: DW_TAG_imported_declaration, scope: !13, entity: !1837, file: !1835, line: 64)
!1837 = !DIDerivedType(tag: DW_TAG_typedef, name: "wctrans_t", file: !1838, line: 32, baseType: !1839)
!1838 = !DIFile(filename: "/Applications/Xcode.app/Contents/Developer/Platforms/MacOSX.platform/Developer/SDKs/MacOSX.sdk/usr/include/_types/_wctrans_t.h", directory: "")
!1839 = !DIDerivedType(tag: DW_TAG_typedef, name: "__darwin_wctrans_t", file: !1840, line: 41, baseType: !21)
!1840 = !DIFile(filename: "/Applications/Xcode.app/Contents/Developer/Platforms/MacOSX.platform/Developer/SDKs/MacOSX.sdk/usr/include/_types.h", directory: "")
!1841 = !DIImportedEntity(tag: DW_TAG_imported_declaration, scope: !13, entity: !1842, file: !1835, line: 65)
!1842 = !DIDerivedType(tag: DW_TAG_typedef, name: "wctype_t", file: !1843, line: 32, baseType: !1844)
!1843 = !DIFile(filename: "/Applications/Xcode.app/Contents/Developer/Platforms/MacOSX.platform/Developer/SDKs/MacOSX.sdk/usr/include/_types/_wctype_t.h", directory: "")
!1844 = !DIDerivedType(tag: DW_TAG_typedef, name: "__darwin_wctype_t", file: !1840, line: 43, baseType: !1845)
!1845 = !DIDerivedType(tag: DW_TAG_typedef, name: "__uint32_t", file: !1434, line: 47, baseType: !25)
!1846 = !DIImportedEntity(tag: DW_TAG_imported_declaration, scope: !13, entity: !1847, file: !1835, line: 66)
!1847 = !DISubprogram(name: "iswalnum", linkageName: "_Z8iswalnumi", scope: !1848, file: !1848, line: 51, type: !1849, flags: DIFlagPrototyped, spFlags: DISPFlagOptimized)
!1848 = !DIFile(filename: "/Applications/Xcode.app/Contents/Developer/Platforms/MacOSX.platform/Developer/SDKs/MacOSX.sdk/usr/include/_wctype.h", directory: "")
!1849 = !DISubroutineType(types: !1850)
!1850 = !{!21, !1832}
!1851 = !DIImportedEntity(tag: DW_TAG_imported_declaration, scope: !13, entity: !1852, file: !1835, line: 67)
!1852 = !DISubprogram(name: "iswalpha", linkageName: "_Z8iswalphai", scope: !1848, file: !1848, line: 57, type: !1849, flags: DIFlagPrototyped, spFlags: DISPFlagOptimized)
!1853 = !DIImportedEntity(tag: DW_TAG_imported_declaration, scope: !13, entity: !1854, file: !1835, line: 68)
!1854 = !DISubprogram(name: "iswblank", linkageName: "_Z8iswblanki", scope: !1855, file: !1855, line: 50, type: !1849, flags: DIFlagPrototyped, spFlags: DISPFlagOptimized)
!1855 = !DIFile(filename: "/Applications/Xcode.app/Contents/Developer/Platforms/MacOSX.platform/Developer/SDKs/MacOSX.sdk/usr/include/wctype.h", directory: "")
!1856 = !DIImportedEntity(tag: DW_TAG_imported_declaration, scope: !13, entity: !1857, file: !1835, line: 69)
!1857 = !DISubprogram(name: "iswcntrl", linkageName: "_Z8iswcntrli", scope: !1848, file: !1848, line: 63, type: !1849, flags: DIFlagPrototyped, spFlags: DISPFlagOptimized)
!1858 = !DIImportedEntity(tag: DW_TAG_imported_declaration, scope: !13, entity: !1859, file: !1835, line: 70)
!1859 = !DISubprogram(name: "iswdigit", linkageName: "_Z8iswdigiti", scope: !1848, file: !1848, line: 75, type: !1849, flags: DIFlagPrototyped, spFlags: DISPFlagOptimized)
!1860 = !DIImportedEntity(tag: DW_TAG_imported_declaration, scope: !13, entity: !1861, file: !1835, line: 71)
!1861 = !DISubprogram(name: "iswgraph", linkageName: "_Z8iswgraphi", scope: !1848, file: !1848, line: 81, type: !1849, flags: DIFlagPrototyped, spFlags: DISPFlagOptimized)
!1862 = !DIImportedEntity(tag: DW_TAG_imported_declaration, scope: !13, entity: !1863, file: !1835, line: 72)
!1863 = !DISubprogram(name: "iswlower", linkageName: "_Z8iswloweri", scope: !1848, file: !1848, line: 87, type: !1849, flags: DIFlagPrototyped, spFlags: DISPFlagOptimized)
!1864 = !DIImportedEntity(tag: DW_TAG_imported_declaration, scope: !13, entity: !1865, file: !1835, line: 73)
!1865 = !DISubprogram(name: "iswprint", linkageName: "_Z8iswprinti", scope: !1848, file: !1848, line: 93, type: !1849, flags: DIFlagPrototyped, spFlags: DISPFlagOptimized)
!1866 = !DIImportedEntity(tag: DW_TAG_imported_declaration, scope: !13, entity: !1867, file: !1835, line: 74)
!1867 = !DISubprogram(name: "iswpunct", linkageName: "_Z8iswpuncti", scope: !1848, file: !1848, line: 99, type: !1849, flags: DIFlagPrototyped, spFlags: DISPFlagOptimized)
!1868 = !DIImportedEntity(tag: DW_TAG_imported_declaration, scope: !13, entity: !1869, file: !1835, line: 75)
!1869 = !DISubprogram(name: "iswspace", linkageName: "_Z8iswspacei", scope: !1848, file: !1848, line: 105, type: !1849, flags: DIFlagPrototyped, spFlags: DISPFlagOptimized)
!1870 = !DIImportedEntity(tag: DW_TAG_imported_declaration, scope: !13, entity: !1871, file: !1835, line: 76)
!1871 = !DISubprogram(name: "iswupper", linkageName: "_Z8iswupperi", scope: !1848, file: !1848, line: 111, type: !1849, flags: DIFlagPrototyped, spFlags: DISPFlagOptimized)
!1872 = !DIImportedEntity(tag: DW_TAG_imported_declaration, scope: !13, entity: !1873, file: !1835, line: 77)
!1873 = !DISubprogram(name: "iswxdigit", linkageName: "_Z9iswxdigiti", scope: !1848, file: !1848, line: 117, type: !1849, flags: DIFlagPrototyped, spFlags: DISPFlagOptimized)
!1874 = !DIImportedEntity(tag: DW_TAG_imported_declaration, scope: !13, entity: !1875, file: !1835, line: 78)
!1875 = !DISubprogram(name: "iswctype", linkageName: "_Z8iswctypeij", scope: !1848, file: !1848, line: 69, type: !1876, flags: DIFlagPrototyped, spFlags: DISPFlagOptimized)
!1876 = !DISubroutineType(types: !1877)
!1877 = !{!21, !1832, !1842}
!1878 = !DIImportedEntity(tag: DW_TAG_imported_declaration, scope: !13, entity: !1879, file: !1835, line: 79)
!1879 = !DISubprogram(name: "wctype", scope: !1848, file: !1848, line: 157, type: !1880, flags: DIFlagPrototyped, spFlags: DISPFlagOptimized)
!1880 = !DISubroutineType(types: !1881)
!1881 = !{!1842, !148}
!1882 = !DIImportedEntity(tag: DW_TAG_imported_declaration, scope: !13, entity: !1883, file: !1835, line: 80)
!1883 = !DISubprogram(name: "towlower", linkageName: "_Z8towloweri", scope: !1848, file: !1848, line: 123, type: !1884, flags: DIFlagPrototyped, spFlags: DISPFlagOptimized)
!1884 = !DISubroutineType(types: !1885)
!1885 = !{!1832, !1832}
!1886 = !DIImportedEntity(tag: DW_TAG_imported_declaration, scope: !13, entity: !1887, file: !1835, line: 81)
!1887 = !DISubprogram(name: "towupper", linkageName: "_Z8towupperi", scope: !1848, file: !1848, line: 129, type: !1884, flags: DIFlagPrototyped, spFlags: DISPFlagOptimized)
!1888 = !DIImportedEntity(tag: DW_TAG_imported_declaration, scope: !13, entity: !1889, file: !1835, line: 82)
!1889 = !DISubprogram(name: "towctrans", scope: !1855, file: !1855, line: 121, type: !1890, flags: DIFlagPrototyped, spFlags: DISPFlagOptimized)
!1890 = !DISubroutineType(types: !1891)
!1891 = !{!1832, !1832, !1837}
!1892 = !DIImportedEntity(tag: DW_TAG_imported_declaration, scope: !13, entity: !1893, file: !1835, line: 83)
!1893 = !DISubprogram(name: "wctrans", scope: !1855, file: !1855, line: 123, type: !1894, flags: DIFlagPrototyped, spFlags: DISPFlagOptimized)
!1894 = !DISubroutineType(types: !1895)
!1895 = !{!1837, !148}
!1896 = !DIImportedEntity(tag: DW_TAG_imported_declaration, scope: !13, entity: !1897, file: !1908, line: 115)
!1897 = !DIDerivedType(tag: DW_TAG_typedef, name: "mbstate_t", file: !1898, line: 32, baseType: !1899)
!1898 = !DIFile(filename: "/Applications/Xcode.app/Contents/Developer/Platforms/MacOSX.platform/Developer/SDKs/MacOSX.sdk/usr/include/sys/_types/_mbstate_t.h", directory: "")
!1899 = !DIDerivedType(tag: DW_TAG_typedef, name: "__darwin_mbstate_t", file: !1434, line: 83, baseType: !1900)
!1900 = !DIDerivedType(tag: DW_TAG_typedef, name: "__mbstate_t", file: !1434, line: 81, baseType: !1901)
!1901 = distinct !DICompositeType(tag: DW_TAG_union_type, file: !1434, line: 78, size: 1024, flags: DIFlagTypePassByValue, elements: !1902, identifier: "_ZTS11__mbstate_t")
!1902 = !{!1903, !1907}
!1903 = !DIDerivedType(tag: DW_TAG_member, name: "__mbstate8", scope: !1901, file: !1434, line: 79, baseType: !1904, size: 1024)
!1904 = !DICompositeType(tag: DW_TAG_array_type, baseType: !150, size: 1024, elements: !1905)
!1905 = !{!1906}
!1906 = !DISubrange(count: 128)
!1907 = !DIDerivedType(tag: DW_TAG_member, name: "_mbstateL", scope: !1901, file: !1434, line: 80, baseType: !1219, size: 64)
!1908 = !DIFile(filename: "LLVM/llvm/build-release-clang-lldb-13.0.0/bin/../include/c++/v1/cwchar", directory: "/Users/jryans/Projects")
!1909 = !DIImportedEntity(tag: DW_TAG_imported_declaration, scope: !13, entity: !79, file: !1908, line: 116)
!1910 = !DIImportedEntity(tag: DW_TAG_imported_declaration, scope: !13, entity: !1527, file: !1908, line: 117)
!1911 = !DIImportedEntity(tag: DW_TAG_imported_declaration, scope: !13, entity: !1832, file: !1908, line: 118)
!1912 = !DIImportedEntity(tag: DW_TAG_imported_declaration, scope: !13, entity: !1587, file: !1908, line: 119)
!1913 = !DIImportedEntity(tag: DW_TAG_imported_declaration, scope: !13, entity: !1914, file: !1908, line: 120)
!1914 = !DISubprogram(name: "fwprintf", scope: !1915, file: !1915, line: 103, type: !1916, flags: DIFlagPrototyped, spFlags: DISPFlagOptimized)
!1915 = !DIFile(filename: "/Applications/Xcode.app/Contents/Developer/Platforms/MacOSX.platform/Developer/SDKs/MacOSX.sdk/usr/include/wchar.h", directory: "")
!1916 = !DISubroutineType(types: !1917)
!1917 = !{!21, !1646, !1369, null}
!1918 = !DIImportedEntity(tag: DW_TAG_imported_declaration, scope: !13, entity: !1919, file: !1908, line: 121)
!1919 = !DISubprogram(name: "fwscanf", scope: !1915, file: !1915, line: 104, type: !1916, flags: DIFlagPrototyped, spFlags: DISPFlagOptimized)
!1920 = !DIImportedEntity(tag: DW_TAG_imported_declaration, scope: !13, entity: !1921, file: !1908, line: 122)
!1921 = !DISubprogram(name: "swprintf", scope: !1915, file: !1915, line: 115, type: !1922, flags: DIFlagPrototyped, spFlags: DISPFlagOptimized)
!1922 = !DISubroutineType(types: !1923)
!1923 = !{!21, !1355, !79, !1369, null}
!1924 = !DIImportedEntity(tag: DW_TAG_imported_declaration, scope: !13, entity: !1925, file: !1908, line: 123)
!1925 = !DISubprogram(name: "vfwprintf", scope: !1915, file: !1915, line: 118, type: !1926, flags: DIFlagPrototyped, spFlags: DISPFlagOptimized)
!1926 = !DISubroutineType(types: !1927)
!1927 = !{!21, !1646, !1369, !1679}
!1928 = !DIImportedEntity(tag: DW_TAG_imported_declaration, scope: !13, entity: !1929, file: !1908, line: 124)
!1929 = !DISubprogram(name: "vswprintf", scope: !1915, file: !1915, line: 120, type: !1930, flags: DIFlagPrototyped, spFlags: DISPFlagOptimized)
!1930 = !DISubroutineType(types: !1931)
!1931 = !{!21, !1355, !79, !1369, !1679}
!1932 = !DIImportedEntity(tag: DW_TAG_imported_declaration, scope: !13, entity: !1933, file: !1908, line: 125)
!1933 = !DISubprogram(name: "swscanf", scope: !1915, file: !1915, line: 116, type: !1934, flags: DIFlagPrototyped, spFlags: DISPFlagOptimized)
!1934 = !DISubroutineType(types: !1935)
!1935 = !{!21, !1369, !1369, null}
!1936 = !DIImportedEntity(tag: DW_TAG_imported_declaration, scope: !13, entity: !1937, file: !1908, line: 126)
!1937 = !DISubprogram(name: "vfwscanf", scope: !1915, file: !1915, line: 170, type: !1926, flags: DIFlagPrototyped, spFlags: DISPFlagOptimized)
!1938 = !DIImportedEntity(tag: DW_TAG_imported_declaration, scope: !13, entity: !1939, file: !1908, line: 127)
!1939 = !DISubprogram(name: "vswscanf", scope: !1915, file: !1915, line: 172, type: !1940, flags: DIFlagPrototyped, spFlags: DISPFlagOptimized)
!1940 = !DISubroutineType(types: !1941)
!1941 = !{!21, !1369, !1369, !1679}
!1942 = !DIImportedEntity(tag: DW_TAG_imported_declaration, scope: !13, entity: !1943, file: !1908, line: 128)
!1943 = !DISubprogram(name: "fgetwc", scope: !1915, file: !1915, line: 98, type: !1944, flags: DIFlagPrototyped, spFlags: DISPFlagOptimized)
!1944 = !DISubroutineType(types: !1945)
!1945 = !{!1832, !1646}
!1946 = !DIImportedEntity(tag: DW_TAG_imported_declaration, scope: !13, entity: !1947, file: !1908, line: 129)
!1947 = !DISubprogram(name: "fgetws", scope: !1915, file: !1915, line: 99, type: !1948, flags: DIFlagPrototyped, spFlags: DISPFlagOptimized)
!1948 = !DISubroutineType(types: !1949)
!1949 = !{!1355, !1355, !21, !1646}
!1950 = !DIImportedEntity(tag: DW_TAG_imported_declaration, scope: !13, entity: !1951, file: !1908, line: 130)
!1951 = !DISubprogram(name: "fputwc", scope: !1915, file: !1915, line: 100, type: !1952, flags: DIFlagPrototyped, spFlags: DISPFlagOptimized)
!1952 = !DISubroutineType(types: !1953)
!1953 = !{!1832, !1356, !1646}
!1954 = !DIImportedEntity(tag: DW_TAG_imported_declaration, scope: !13, entity: !1955, file: !1908, line: 131)
!1955 = !DISubprogram(name: "fputws", scope: !1915, file: !1915, line: 101, type: !1956, flags: DIFlagPrototyped, spFlags: DISPFlagOptimized)
!1956 = !DISubroutineType(types: !1957)
!1957 = !{!21, !1369, !1646}
!1958 = !DIImportedEntity(tag: DW_TAG_imported_declaration, scope: !13, entity: !1959, file: !1908, line: 132)
!1959 = !DISubprogram(name: "fwide", scope: !1915, file: !1915, line: 102, type: !1960, flags: DIFlagPrototyped, spFlags: DISPFlagOptimized)
!1960 = !DISubroutineType(types: !1961)
!1961 = !{!21, !1646, !21}
!1962 = !DIImportedEntity(tag: DW_TAG_imported_declaration, scope: !13, entity: !1963, file: !1908, line: 133)
!1963 = !DISubprogram(name: "getwc", scope: !1915, file: !1915, line: 105, type: !1944, flags: DIFlagPrototyped, spFlags: DISPFlagOptimized)
!1964 = !DIImportedEntity(tag: DW_TAG_imported_declaration, scope: !13, entity: !1965, file: !1908, line: 134)
!1965 = !DISubprogram(name: "putwc", scope: !1915, file: !1915, line: 113, type: !1952, flags: DIFlagPrototyped, spFlags: DISPFlagOptimized)
!1966 = !DIImportedEntity(tag: DW_TAG_imported_declaration, scope: !13, entity: !1967, file: !1908, line: 135)
!1967 = !DISubprogram(name: "ungetwc", scope: !1915, file: !1915, line: 117, type: !1968, flags: DIFlagPrototyped, spFlags: DISPFlagOptimized)
!1968 = !DISubroutineType(types: !1969)
!1969 = !{!1832, !1832, !1646}
!1970 = !DIImportedEntity(tag: DW_TAG_imported_declaration, scope: !13, entity: !1971, file: !1908, line: 136)
!1971 = !DISubprogram(name: "wcstod", scope: !1915, file: !1915, line: 144, type: !1972, flags: DIFlagPrototyped, spFlags: DISPFlagOptimized)
!1972 = !DISubroutineType(types: !1973)
!1973 = !{!1225, !1369, !1974}
!1974 = !DIDerivedType(tag: DW_TAG_pointer_type, baseType: !1355, size: 64)
!1975 = !DIImportedEntity(tag: DW_TAG_imported_declaration, scope: !13, entity: !1976, file: !1908, line: 137)
!1976 = !DISubprogram(name: "wcstof", scope: !1915, file: !1915, line: 175, type: !1977, flags: DIFlagPrototyped, spFlags: DISPFlagOptimized)
!1977 = !DISubroutineType(types: !1978)
!1978 = !{!1247, !1369, !1974}
!1979 = !DIImportedEntity(tag: DW_TAG_imported_declaration, scope: !13, entity: !1980, file: !1908, line: 138)
!1980 = !DISubprogram(name: "wcstold", scope: !1915, file: !1915, line: 177, type: !1981, flags: DIFlagPrototyped, spFlags: DISPFlagOptimized)
!1981 = !DISubroutineType(types: !1982)
!1982 = !{!1198, !1369, !1974}
!1983 = !DIImportedEntity(tag: DW_TAG_imported_declaration, scope: !13, entity: !1984, file: !1908, line: 139)
!1984 = !DISubprogram(name: "wcstol", scope: !1915, file: !1915, line: 147, type: !1985, flags: DIFlagPrototyped, spFlags: DISPFlagOptimized)
!1985 = !DISubroutineType(types: !1986)
!1986 = !{!62, !1369, !1974, !21}
!1987 = !DIImportedEntity(tag: DW_TAG_imported_declaration, scope: !13, entity: !1988, file: !1908, line: 141)
!1988 = !DISubprogram(name: "wcstoll", scope: !1915, file: !1915, line: 180, type: !1989, flags: DIFlagPrototyped, spFlags: DISPFlagOptimized)
!1989 = !DISubroutineType(types: !1990)
!1990 = !{!1219, !1369, !1974, !21}
!1991 = !DIImportedEntity(tag: DW_TAG_imported_declaration, scope: !13, entity: !1992, file: !1908, line: 143)
!1992 = !DISubprogram(name: "wcstoul", scope: !1915, file: !1915, line: 149, type: !1993, flags: DIFlagPrototyped, spFlags: DISPFlagOptimized)
!1993 = !DISubroutineType(types: !1994)
!1994 = !{!80, !1369, !1974, !21}
!1995 = !DIImportedEntity(tag: DW_TAG_imported_declaration, scope: !13, entity: !1996, file: !1908, line: 145)
!1996 = !DISubprogram(name: "wcstoull", scope: !1915, file: !1915, line: 182, type: !1997, flags: DIFlagPrototyped, spFlags: DISPFlagOptimized)
!1997 = !DISubroutineType(types: !1998)
!1998 = !{!1268, !1369, !1974, !21}
!1999 = !DIImportedEntity(tag: DW_TAG_imported_declaration, scope: !13, entity: !2000, file: !1908, line: 147)
!2000 = !DISubprogram(name: "wcscpy", scope: !1915, file: !1915, line: 128, type: !2001, flags: DIFlagPrototyped, spFlags: DISPFlagOptimized)
!2001 = !DISubroutineType(types: !2002)
!2002 = !{!1355, !1355, !1369}
!2003 = !DIImportedEntity(tag: DW_TAG_imported_declaration, scope: !13, entity: !2004, file: !1908, line: 148)
!2004 = !DISubprogram(name: "wcsncpy", scope: !1915, file: !1915, line: 135, type: !2005, flags: DIFlagPrototyped, spFlags: DISPFlagOptimized)
!2005 = !DISubroutineType(types: !2006)
!2006 = !{!1355, !1355, !1369, !79}
!2007 = !DIImportedEntity(tag: DW_TAG_imported_declaration, scope: !13, entity: !2008, file: !1908, line: 149)
!2008 = !DISubprogram(name: "wcscat", scope: !1915, file: !1915, line: 124, type: !2001, flags: DIFlagPrototyped, spFlags: DISPFlagOptimized)
!2009 = !DIImportedEntity(tag: DW_TAG_imported_declaration, scope: !13, entity: !2010, file: !1908, line: 150)
!2010 = !DISubprogram(name: "wcsncat", scope: !1915, file: !1915, line: 133, type: !2005, flags: DIFlagPrototyped, spFlags: DISPFlagOptimized)
!2011 = !DIImportedEntity(tag: DW_TAG_imported_declaration, scope: !13, entity: !2012, file: !1908, line: 151)
!2012 = !DISubprogram(name: "wcscmp", scope: !1915, file: !1915, line: 126, type: !2013, flags: DIFlagPrototyped, spFlags: DISPFlagOptimized)
!2013 = !DISubroutineType(types: !2014)
!2014 = !{!21, !1369, !1369}
!2015 = !DIImportedEntity(tag: DW_TAG_imported_declaration, scope: !13, entity: !2016, file: !1908, line: 152)
!2016 = !DISubprogram(name: "wcscoll", scope: !1915, file: !1915, line: 127, type: !2013, flags: DIFlagPrototyped, spFlags: DISPFlagOptimized)
